(dp0
S'Shane Vereen - NYG'
p1
ccopy_reg
_reconstructor
p2
(cfootball
FootballPlayer
p3
c__builtin__
object
p4
Ntp5
Rp6
(dp7
S'name'
p8
S'Shane Vereen'
p9
sS'receivingSDMult'
p10
F2.0
sS'isIgnored'
p11
I00
sS'team'
p12
S'NYG'
p13
sS'prop'
p14
(dp15
S'receptions'
p16
V47.9
p17
sS'rushingYards'
p18
V340.3
p19
sS'rushingTDs'
p20
V2.2
p21
sS'rushingAttempts'
p22
V82.9
p23
sS'receivingYards'
p24
V419.3
p25
sS'receivingTDs'
p26
V1.5
p27
sS'fantasyPoints'
p28
V94.9
p29
sS'fumblesLost'
p30
V1.8
p31
ssS'nameAliases'
p32
(lp33
sS'cost'
p34
I0
sS'isDrafted'
p35
I00
sS'position'
p36
(lp37
S'RB'
p38
asS'passingSDMult'
p39
F1.6
sS'rushingSDMult'
p40
F2.4
sbsS'Todd Gurley - STL'
p41
g2
(g3
g4
Ntp42
Rp43
(dp44
g8
S'Todd Gurley'
p45
sg10
F2.0
sg11
I00
sg12
S'STL'
p46
sg14
(dp47
g16
V24.6
p48
sg18
V823.1
p49
sg20
V5.7
p50
sg22
V183.1
p51
sg24
V196.0
p52
sg26
V0.7
p53
sg28
V138.3
p54
sg30
V1.0
p55
ssg32
(lp56
sg34
I0
sg35
I00
sg36
(lp57
g38
asg39
F1.6
sg40
F2.4
sbsS'Marquise Goodwin - BUF'
p58
g2
(g3
g4
Ntp59
Rp60
(dp61
g8
S'Marquise Goodwin'
p62
sg10
F2.0
sg11
I00
sg12
S'BUF'
p63
sg14
(dp64
g16
V4.6
p65
sg18
V-0.8
p66
sg20
V0.0
p67
sg22
V0.1
p68
sg24
V62.8
p69
sg26
V0.2
p70
sg28
V7.3
p71
sg30
V0.0
p72
ssg32
(lp73
sg34
I0
sg35
I00
sg36
(lp74
S'WR'
p75
asg39
F1.6
sg40
F2.4
sbsS'Scott Chandler - NE'
p76
g2
(g3
g4
Ntp77
Rp78
(dp79
g8
S'Scott Chandler'
p80
sg10
F2.0
sg11
I00
sg12
S'NE'
p81
sg14
(dp82
g16
V24.3
p83
sg30
V0.2
p84
sg24
V276.7
p85
sg26
V2.1
p86
sg28
V40.2
p87
ssg32
(lp88
sg34
I0
sg35
I00
sg36
(lp89
S'TE'
p90
asg39
F1.6
sg40
F2.4
sbsS'Tyrod Taylor - BUF'
p91
g2
(g3
g4
Ntp92
Rp93
(dp94
g8
S'Tyrod Taylor'
p95
sg10
F2.0
sg11
I00
sg12
S'BUF'
p96
sg14
(dp97
S'passingInterceptions'
p98
V13.8
p99
sg22
V60.3
p100
sS'passingAttempts'
p101
V391.9
p102
sg20
V1.6
p103
sS'passingYards'
p104
V2604.5
p105
sS'passingCompletions'
p106
V239.9
p107
sg28
V168.6
p108
sg30
V3.2
p109
sS'passingTDs'
p110
V15.1
p111
sg18
V284.2
p112
ssg32
(lp113
sg34
I0
sg35
I00
sg36
(lp114
S'QB'
p115
asg39
F1.6
sg40
F2.4
sbsS'Rob Housler - CLE'
p116
g2
(g3
g4
Ntp117
Rp118
(dp119
g8
S'Rob Housler'
p120
sg10
F2.0
sg11
I00
sg12
S'CLE'
p121
sg14
(dp122
g16
V26.4
p123
sg30
V0.2
p124
sg24
V293.3
p125
sg26
V1.8
p126
sg28
V39.7
p127
ssg32
(lp128
sg34
I0
sg35
I00
sg36
(lp129
g90
asg39
F1.6
sg40
F2.4
sbsS'Nate Washington - HOU'
p130
g2
(g3
g4
Ntp131
Rp132
(dp133
g8
S'Nate Washington'
p134
sg10
F2.0
sg11
I00
sg12
S'HOU'
p135
sg14
(dp136
g16
V33.3
p137
sg18
V0.0
p138
sg20
V0.0
p139
sg22
V0.0
p140
sg24
V492.8
p141
sg26
V2.4
p142
sg28
V62.8
p143
sg30
V0.3
p144
ssg32
(lp145
sg34
I0
sg35
I00
sg36
(lp146
g75
asg39
F1.6
sg40
F2.4
sbsS'Tyler Lockett - SEA'
p147
g2
(g3
g4
Ntp148
Rp149
(dp150
g8
S'Tyler Lockett'
p151
sg10
F2.0
sg11
I00
sg12
S'SEA'
p152
sg14
(dp153
g16
V27.1
p154
sg18
V5.0
p155
sg20
V0.0
p156
sg22
V0.7
p157
sg24
V383.2
p158
sg26
V2.1
p159
sg28
V50.5
p160
sg30
V0.4
p161
ssg32
(lp162
sg34
I0
sg35
I00
sg36
(lp163
g75
asg39
F1.6
sg40
F2.4
sbsS'Ladarius Green - SD'
p164
g2
(g3
g4
Ntp165
Rp166
(dp167
g8
S'Ladarius Green'
p168
sg10
F2.0
sg11
I00
sg12
S'SD'
p169
sg14
(dp170
g16
V34.1
p171
sg30
V0.2
p172
sg24
V419.9
p173
sg26
V2.9
p174
sg28
V59.2
p175
ssg32
(lp176
sg34
I0
sg35
I00
sg36
(lp177
g90
asg39
F1.6
sg40
F2.4
sbsS'Jesse James - PIT'
p178
g2
(g3
g4
Ntp179
Rp180
(dp181
g8
S'Jesse James'
p182
sg10
F2.0
sg11
I00
sg12
S'PIT'
p183
sg14
(dp184
g16
V1.2
p185
sg30
V0.0
p186
sg24
V11.9
p187
sg26
V0.1
p188
sg28
V1.8
p189
ssg32
(lp190
sg34
I0
sg35
I00
sg36
(lp191
g90
asg39
F1.6
sg40
F2.4
sbsS'Emmanuel Sanders - DEN'
p192
g2
(g3
g4
Ntp193
Rp194
(dp195
g8
S'Emmanuel Sanders'
p196
sg10
F2.0
sg11
I00
sg12
S'DEN'
p197
sg14
(dp198
g16
V83.3
p199
sg18
V20.9
p200
sg20
V0.0
p201
sg22
V3.3
p202
sg24
V1116.5
p203
sg26
V7.7
p204
sg28
V159.3
p205
sg30
V0.3
p206
ssg32
(lp207
sg34
I0
sg35
I00
sg36
(lp208
g75
asg39
F1.6
sg40
F2.4
sbsS'Brandon Bolden - NE'
p209
g2
(g3
g4
Ntp210
Rp211
(dp212
g8
S'Brandon Bolden'
p213
sg10
F2.0
sg11
I00
sg12
S'NE'
p214
sg14
(dp215
g16
V13.3
p216
sg18
V254.0
p217
sg20
V2.0
p218
sg22
V64.4
p219
sg24
V86.9
p220
sg26
V0.3
p221
sg28
V46.0
p222
sg30
V0.9
p223
ssg32
(lp224
sg34
I0
sg35
I00
sg36
(lp225
g38
asg39
F1.6
sg40
F2.4
sbsS'Nelson Agholor - PHI'
p226
g2
(g3
g4
Ntp227
Rp228
(dp229
g8
S'Nelson Agholor'
p230
sg10
F2.0
sg11
I00
sg12
S'PHI'
p231
sg14
(dp232
g16
V59.0
p233
sg18
V0.0
p234
sg20
V0.0
p235
sg22
V0.0
p236
sg24
V808.8
p237
sg26
V5.7
p238
sg28
V113.5
p239
sg30
V0.9
p240
ssg32
(lp241
sg34
I0
sg35
I00
sg36
(lp242
g75
asg39
F1.6
sg40
F2.4
sbsS'Dontrelle Inman - SD'
p243
g2
(g3
g4
Ntp244
Rp245
(dp246
g8
S'Dontrelle Inman'
p247
sg10
F2.0
sg11
I00
sg12
S'SD'
p248
sg14
(dp249
g16
V9.6
p250
sg18
V0.0
p251
sg20
V0.0
p252
sg22
V0.0
p253
sg24
V130.2
p254
sg26
V0.7
p255
sg28
V17.3
p256
sg30
V0.0
p257
ssg32
(lp258
sg34
I0
sg35
I00
sg36
(lp259
g75
asg39
F1.6
sg40
F2.4
sbsS'Kirk Cousins - WAS'
p260
g2
(g3
g4
Ntp261
Rp262
(dp263
g8
S'Kirk Cousins'
p264
sg10
F2.0
sg11
I00
sg12
S'WAS'
p265
sg14
(dp266
g98
V15.5
p267
sg22
V20.0
p268
sg101
V442.9
p269
sg20
V0.3
p270
sg104
V3277.3
p271
sg106
V274.6
p272
sg28
V168.4
p273
sg30
V4.2
p274
sg110
V16.8
p275
sg18
V76.5
p276
ssg32
(lp277
sg34
I0
sg35
I00
sg36
(lp278
g115
asg39
F1.6
sg40
F2.4
sbsS'DeAngelo Williams - PIT'
p279
g2
(g3
g4
Ntp280
Rp281
(dp282
g8
S'DeAngelo Williams'
p283
sg10
F2.0
sg11
I00
sg12
S'PIT'
p284
sg14
(dp285
g16
V12.6
p286
sg18
V331.6
p287
sg20
V1.7
p288
sg22
V82.6
p289
sg24
V107.2
p290
sg26
V0.1
p291
sg28
V49.7
p292
sg30
V2.6
p293
ssg32
(lp294
sg34
I0
sg35
I00
sg36
(lp295
g38
asg39
F1.6
sg40
F2.4
sbsS'Jim Dray - CLE'
p296
g2
(g3
g4
Ntp297
Rp298
(dp299
g8
S'Jim Dray'
p300
sg10
F2.0
sg11
I00
sg12
S'CLE'
p301
sg14
(dp302
g16
V12.6
p303
sg30
V0.5
p304
sg24
V149.7
p305
sg26
V0.7
p306
sg28
V17.9
p307
ssg32
(lp308
sg34
I0
sg35
I00
sg36
(lp309
g90
asg39
F1.6
sg40
F2.4
sbsS'Chris Owusu - NYJ'
p310
g2
(g3
g4
Ntp311
Rp312
(dp313
g8
S'Chris Owusu'
p314
sg10
F2.0
sg11
I00
sg12
S'NYJ'
p315
sg14
(dp316
g16
V3.8
p317
sg18
V0.0
p318
sg20
V0.0
p319
sg22
V0.0
p320
sg24
V38.9
p321
sg26
V0.1
p322
sg28
V4.2
p323
sg30
V0.0
p324
ssg32
(lp325
sg34
I0
sg35
I00
sg36
(lp326
g75
asg39
F1.6
sg40
F2.4
sbsS'Nick Boyle - BAL'
p327
g2
(g3
g4
Ntp328
Rp329
(dp330
g8
S'Nick Boyle'
p331
sg10
F2.0
sg11
I00
sg12
S'BAL'
p332
sg14
(dp333
g16
V1.3
p334
sg30
V0.0
p335
sg24
V14.1
p336
sg26
V0.1
p337
sg28
V2.0
p338
ssg32
(lp339
sg34
I0
sg35
I00
sg36
(lp340
g90
asg39
F1.6
sg40
F2.4
sbsS'Rhett Ellison - MIN'
p341
g2
(g3
g4
Ntp342
Rp343
(dp344
g8
S'Rhett Ellison'
p345
sg10
F2.0
sg11
I00
sg12
S'MIN'
p346
sg14
(dp347
g16
V23.2
p348
sg30
V0.2
p349
sg24
V268.1
p350
sg26
V1.8
p351
sg28
V37.2
p352
ssg32
(lp353
sg34
I0
sg35
I00
sg36
(lp354
g90
asg39
F1.6
sg40
F2.4
sbsS'Joseph - Morgan'
p355
g2
(g3
g4
Ntp356
Rp357
(dp358
g8
S'Joseph'
p359
sg10
F2.0
sg11
I00
sg12
S'Morgan'
p360
sg14
(dp361
g16
V8.6
p362
sg18
V0.8
p363
sg20
V0.0
p364
sg22
V0.0
p365
sg24
V139.6
p366
sg26
V0.6
p367
sg28
V17.7
p368
sg30
V0.0
p369
ssg32
(lp370
sg34
I0
sg35
I00
sg36
(lp371
g75
asg39
F1.6
sg40
F2.4
sbsS'Matthew Mulligan - BUF'
p372
g2
(g3
g4
Ntp373
Rp374
(dp375
g8
S'Matthew Mulligan'
p376
sg10
F2.0
sg11
I00
sg12
S'BUF'
p377
sg14
(dp378
g16
V0.9
p379
sg30
V0.0
p380
sg24
V8.6
p381
sg26
V0.2
p382
sg28
V2.1
p383
ssg32
(lp384
sg34
I0
sg35
I00
sg36
(lp385
g90
asg39
F1.6
sg40
F2.4
sbsS'Rashad Ross - WAS'
p386
g2
(g3
g4
Ntp387
Rp388
(dp389
g8
S'Rashad Ross'
p390
sg10
F2.0
sg11
I00
sg12
S'WAS'
p391
sg14
(dp392
g16
V5.7
p393
sg18
V0.0
p394
sg20
V0.0
p395
sg22
V0.0
p396
sg24
V71.7
p397
sg26
V0.3
p398
sg28
V8.9
p399
sg30
V0.0
p400
ssg32
(lp401
sg34
I0
sg35
I00
sg36
(lp402
g75
asg39
F1.6
sg40
F2.4
sbsS'Darrius Heyward-Bey - PIT'
p403
g2
(g3
g4
Ntp404
Rp405
(dp406
g8
S'Darrius Heyward-Bey'
p407
sg10
F2.0
sg11
I00
sg12
S'PIT'
p408
sg14
(dp409
g16
V9.8
p410
sg18
V1.2
p411
sg20
V0.0
p412
sg22
V0.3
p413
sg24
V108.2
p414
sg26
V0.5
p415
sg28
V12.5
p416
sg30
V0.6
p417
ssg32
(lp418
sg34
I0
sg35
I00
sg36
(lp419
g75
asg39
F1.6
sg40
F2.4
sbsS'Keenan Allen - SD'
p420
g2
(g3
g4
Ntp421
Rp422
(dp423
g8
S'Keenan Allen'
p424
sg10
F2.0
sg11
I00
sg12
S'SD'
p425
sg14
(dp426
g16
V79.5
p427
sg18
V0.0
p428
sg20
V0.0
p429
sg22
V0.0
p430
sg24
V997.2
p431
sg26
V5.5
p432
sg28
V129.3
p433
sg30
V1.8
p434
ssg32
(lp435
sg34
I0
sg35
I00
sg36
(lp436
g75
asg39
F1.6
sg40
F2.4
sbsS'Brent Celek - PHI'
p437
g2
(g3
g4
Ntp438
Rp439
(dp440
g8
S'Brent Celek'
p441
sg10
F2.0
sg11
I00
sg12
S'PHI'
p442
sg14
(dp443
g16
V32.9
p444
sg30
V1.6
p445
sg24
V372.3
p446
sg26
V3.0
p447
sg28
V51.9
p448
ssg32
(lp449
sg34
I0
sg35
I00
sg36
(lp450
g90
asg39
F1.6
sg40
F2.4
sbsS'Marcel Reece - OAK'
p451
g2
(g3
g4
Ntp452
Rp453
(dp454
g8
S'Marcel Reece'
p455
sg10
F2.0
sg11
I00
sg12
S'OAK'
p456
sg14
(dp457
g16
V21.6
p458
sg18
V88.2
p459
sg20
V0.5
p460
sg22
V20.9
p461
sg24
V181.8
p462
sg26
V0.7
p463
sg28
V32.5
p464
sg30
V0.9
p465
ssg32
(lp466
sg34
I0
sg35
I00
sg36
(lp467
g38
asg39
F1.6
sg40
F2.4
sbsS'Lamar Miller - MIA'
p468
g2
(g3
g4
Ntp469
Rp470
(dp471
g8
S'Lamar Miller'
p472
sg10
F2.0
sg11
I00
sg12
S'MIA'
p473
sg14
(dp474
g16
V38.5
p475
sg18
V1043.7
p476
sg20
V6.8
p477
sg22
V224.0
p478
sg24
V281.5
p479
sg26
V1.0
p480
sg28
V172.8
p481
sg30
V3.2
p482
ssg32
(lp483
sg34
I0
sg35
I00
sg36
(lp484
g38
asg39
F1.6
sg40
F2.4
sbsS'Charles Sims - TB'
p485
g2
(g3
g4
Ntp486
Rp487
(dp488
g8
S'Charles Sims'
p489
sg10
F2.0
sg11
I00
sg12
S'TB'
p490
sg14
(dp491
g16
V38.4
p492
sg18
V430.8
p493
sg20
V2.5
p494
sg22
V112.3
p495
sg24
V332.5
p496
sg26
V0.8
p497
sg28
V91.5
p498
sg30
V2.2
p499
ssg32
(lp500
sg34
I0
sg35
I00
sg36
(lp501
g38
asg39
F1.6
sg40
F2.4
sbsS'Crockett Gillmore - BAL'
p502
g2
(g3
g4
Ntp503
Rp504
(dp505
g8
S'Crockett Gillmore'
p506
sg10
F2.0
sg11
I00
sg12
S'BAL'
p507
sg14
(dp508
g16
V28.5
p509
sg30
V0.3
p510
sg24
V314.7
p511
sg26
V2.6
p512
sg28
V46.6
p513
ssg32
(lp514
sg34
I0
sg35
I00
sg36
(lp515
g90
asg39
F1.6
sg40
F2.4
sbsS'Knile Davis - KC'
p516
g2
(g3
g4
Ntp517
Rp518
(dp519
g8
S'Knile Davis'
p520
sg10
F2.0
sg11
I00
sg12
S'KC'
p521
sg14
(dp522
g16
V16.1
p523
sg18
V420.4
p524
sg20
V4.0
p525
sg22
V107.7
p526
sg24
V127.3
p527
sg26
V0.8
p528
sg28
V78.8
p529
sg30
V2.3
p530
ssg32
(lp531
sg34
I0
sg35
I00
sg36
(lp532
g38
asg39
F1.6
sg40
F2.4
sbsS'Devin Funchess - CAR'
p533
g2
(g3
g4
Ntp534
Rp535
(dp536
g8
S'Devin Funchess'
p537
sg10
F2.0
sg11
I00
sg12
S'CAR'
p538
sg14
(dp539
g16
V60.1
p540
sg18
V0.0
p541
sg20
V0.0
p542
sg22
V0.0
p543
sg24
V789.7
p544
sg26
V5.2
p545
sg28
V108.5
p546
sg30
V0.7
p547
ssg32
(lp548
sg34
I0
sg35
I00
sg36
(lp549
g75
asg39
F1.6
sg40
F2.4
sbsS'Senorise Perry - CHI'
p550
g2
(g3
g4
Ntp551
Rp552
(dp553
g8
S'Senorise Perry'
p554
sg10
F2.0
sg11
I00
sg12
S'CHI'
p555
sg14
(dp556
g16
V3.3
p557
sg18
V16.0
p558
sg20
V0.2
p559
sg22
V5.3
p560
sg24
V19.6
p561
sg26
V0.1
p562
sg28
V5.2
p563
sg30
V0.0
p564
ssg32
(lp565
sg34
I0
sg35
I00
sg36
(lp566
g38
asg39
F1.6
sg40
F2.4
sbsS'Rashad Jennings - NYG'
p567
g2
(g3
g4
Ntp568
Rp569
(dp570
g8
S'Rashad Jennings'
p571
sg10
F2.0
sg11
I00
sg12
S'NYG'
p572
sg14
(dp573
g16
V34.1
p574
sg18
V800.4
p575
sg20
V5.6
p576
sg22
V192.2
p577
sg24
V259.6
p578
sg26
V0.8
p579
sg28
V141.2
p580
sg30
V1.8
p581
ssg32
(lp582
sg34
I0
sg35
I00
sg36
(lp583
g38
asg39
F1.6
sg40
F2.4
sbsS'David Johnson - SD'
p584
g2
(g3
g4
Ntp585
Rp586
(dp587
g8
S'David Johnson'
p588
sg10
F2.0
sg11
I00
sg12
S'SD'
p589
sg14
(dp590
g16
V7.3
p591
sg30
V0.1
p592
sg24
V69.9
p593
sg26
V0.6
p594
sg28
V10.2
p595
ssg32
(lp596
sg34
I0
sg35
I00
sg36
(lp597
g90
asg39
F1.6
sg40
F2.4
sbsS'John Brown - ARI'
p598
g2
(g3
g4
Ntp599
Rp600
(dp601
g8
S'John Brown'
p602
sg10
F2.0
sg11
I00
sg12
S'ARI'
p603
sg14
(dp604
g16
V54.0
p605
sg18
V10.7
p606
sg20
V0.0
p607
sg22
V1.9
p608
sg24
V773.1
p609
sg26
V5.3
p610
sg28
V109.3
p611
sg30
V0.3
p612
ssg32
(lp613
sg34
I0
sg35
I00
sg36
(lp614
g75
asg39
F1.6
sg40
F2.4
sbsS'LaMichael James - MIA'
p615
g2
(g3
g4
Ntp616
Rp617
(dp618
g8
S'LaMichael James'
p619
sg10
F2.0
sg11
I00
sg12
S'MIA'
p620
sg14
(dp621
g16
V12.2
p622
sg18
V168.9
p623
sg20
V1.1
p624
sg22
V40.8
p625
sg24
V76.3
p626
sg26
V0.4
p627
sg28
V30.9
p628
sg30
V1.3
p629
ssg32
(lp630
sg34
I0
sg35
I00
sg36
(lp631
g38
asg39
F1.6
sg40
F2.4
sbsS'Ricardo Lockette - SEA'
p632
g2
(g3
g4
Ntp633
Rp634
(dp635
g8
S'Ricardo Lockette'
p636
sg10
F2.0
sg11
I00
sg12
S'SEA'
p637
sg14
(dp638
g16
V13.9
p639
sg18
V3.2
p640
sg20
V0.1
p641
sg22
V0.5
p642
sg24
V190.1
p643
sg26
V1.1
p644
sg28
V25.9
p645
sg30
V0.2
p646
ssg32
(lp647
sg34
I0
sg35
I00
sg36
(lp648
g75
asg39
F1.6
sg40
F2.4
sbsS'John - Phillips'
p649
g2
(g3
g4
Ntp650
Rp651
(dp652
g8
S'John'
p653
sg10
F2.0
sg11
I00
sg12
S'Phillips'
p654
sg14
(dp655
g16
V6.6
p656
sg30
V0.1
p657
sg24
V67.0
p658
sg26
V0.6
p659
sg28
V10.1
p660
ssg32
(lp661
sg34
I0
sg35
I00
sg36
(lp662
g90
asg39
F1.6
sg40
F2.4
sbsS'Jake Stoneburner - MIA'
p663
g2
(g3
g4
Ntp664
Rp665
(dp666
g8
S'Jake Stoneburner'
p667
sg10
F2.0
sg11
I00
sg12
S'MIA'
p668
sg14
(dp669
g16
V1.3
p670
sg30
V0.0
p671
sg24
V11.7
p672
sg26
V0.1
p673
sg28
V1.8
p674
ssg32
(lp675
sg34
I0
sg35
I00
sg36
(lp676
g90
asg39
F1.6
sg40
F2.4
sbsS'Tony Romo - DAL'
p677
g2
(g3
g4
Ntp678
Rp679
(dp680
g8
S'Tony Romo'
p681
sg10
F2.0
sg11
I00
sg12
S'DAL'
p682
sg14
(dp683
g98
V11.5
p684
sg22
V27.1
p685
sg101
V509.2
p686
sg20
V0.8
p687
sg104
V4080.7
p688
sg106
V335.0
p689
sg28
V272.4
p690
sg30
V2.9
p691
sg110
V31.6
p692
sg18
V67.1
p693
ssg32
(lp694
sg34
I0
sg35
I00
sg36
(lp695
g115
asg39
F1.6
sg40
F2.4
sbsS'Nikita Whitlock - NYG'
p696
g2
(g3
g4
Ntp697
Rp698
(dp699
g8
S'Nikita Whitlock'
p700
sg10
F2.0
sg11
I00
sg12
S'NYG'
p701
sg14
(dp702
g16
V0.3
p703
sg18
V2.2
p704
sg20
V0.0
p705
sg22
V0.6
p706
sg24
V2.7
p707
sg26
V0.0
p708
sg28
V0.5
p709
sg30
V0.0
p710
ssg32
(lp711
sg34
I0
sg35
I00
sg36
(lp712
g38
asg39
F1.6
sg40
F2.4
sbsS'Clay Harbor - JAC'
p713
g2
(g3
g4
Ntp714
Rp715
(dp716
g8
S'Clay Harbor'
p717
sg10
F2.0
sg11
I00
sg12
S'JAC'
p718
sg14
(dp719
g16
V8.6
p720
sg30
V0.1
p721
sg24
V86.7
p722
sg26
V0.5
p723
sg28
V11.6
p724
ssg32
(lp725
sg34
I0
sg35
I00
sg36
(lp726
g90
asg39
F1.6
sg40
F2.4
sbsS'Tyler Kroft - CIN'
p727
g2
(g3
g4
Ntp728
Rp729
(dp730
g8
S'Tyler Kroft'
p731
sg10
F2.0
sg11
I00
sg12
S'CIN'
p732
sg14
(dp733
g16
V12.2
p734
sg30
V0.5
p735
sg24
V122.0
p736
sg26
V1.2
p737
sg28
V18.1
p738
ssg32
(lp739
sg34
I0
sg35
I00
sg36
(lp740
g90
asg39
F1.6
sg40
F2.4
sbsS'Owen Daniels - DEN'
p741
g2
(g3
g4
Ntp742
Rp743
(dp744
g8
S'Owen Daniels'
p745
sg10
F2.0
sg11
I00
sg12
S'DEN'
p746
sg14
(dp747
g16
V48.6
p748
sg30
V0.3
p749
sg24
V556.7
p750
sg26
V4.4
p751
sg28
V81.6
p752
ssg32
(lp753
sg34
I0
sg35
I00
sg36
(lp754
g90
asg39
F1.6
sg40
F2.4
sbsS'Josh Robinson - IND'
p755
g2
(g3
g4
Ntp756
Rp757
(dp758
g8
S'Josh Robinson'
p759
sg10
F2.0
sg11
I00
sg12
S'IND'
p760
sg14
(dp761
g16
V7.6
p762
sg18
V185.0
p763
sg20
V0.7
p764
sg22
V44.3
p765
sg24
V59.8
p766
sg26
V0.1
p767
sg28
V29.0
p768
sg30
V0.0
p769
ssg32
(lp770
sg34
I0
sg35
I00
sg36
(lp771
g38
asg39
F1.6
sg40
F2.4
sbsS'Patrick DiMarco - ATL'
p772
g2
(g3
g4
Ntp773
Rp774
(dp775
g8
S'Patrick DiMarco'
p776
sg10
F2.0
sg11
I00
sg12
S'ATL'
p777
sg14
(dp778
g16
V12.0
p779
sg18
V12.4
p780
sg20
V0.0
p781
sg22
V3.2
p782
sg24
V90.2
p783
sg26
V0.9
p784
sg28
V15.6
p785
sg30
V0.0
p786
ssg32
(lp787
sg34
I0
sg35
I00
sg36
(lp788
g38
asg39
F1.6
sg40
F2.4
sbsS'Ryan Grant - WAS'
p789
g2
(g3
g4
Ntp790
Rp791
(dp792
g8
S'Ryan Grant'
p793
sg10
F2.0
sg11
I00
sg12
S'WAS'
p794
sg14
(dp795
g16
V22.6
p796
sg18
V0.0
p797
sg20
V0.0
p798
sg22
V0.0
p799
sg24
V335.0
p800
sg26
V1.5
p801
sg28
V41.3
p802
sg30
V0.6
p803
ssg32
(lp804
sg34
I0
sg35
I00
sg36
(lp805
g75
asg39
F1.6
sg40
F2.4
sbsS'Andrew Hawkins - CLE'
p806
g2
(g3
g4
Ntp807
Rp808
(dp809
g8
S'Andrew Hawkins'
p810
sg10
F2.0
sg11
I00
sg12
S'CLE'
p811
sg14
(dp812
g16
V47.1
p813
sg18
V25.9
p814
sg20
V0.0
p815
sg22
V3.5
p816
sg24
V580.8
p817
sg26
V2.3
p818
sg28
V74.3
p819
sg30
V0.2
p820
ssg32
(lp821
sg34
I0
sg35
I00
sg36
(lp822
g75
asg39
F1.6
sg40
F2.4
sbsS'Julio Jones - ATL'
p823
g2
(g3
g4
Ntp824
Rp825
(dp826
g8
S'Julio Jones'
p827
sg10
F2.0
sg11
I00
sg12
S'ATL'
p828
sg14
(dp829
g16
V100.4
p830
sg18
V9.2
p831
sg20
V0.0
p832
sg22
V1.7
p833
sg24
V1400.6
p834
sg26
V8.2
p835
sg28
V186.7
p836
sg30
V1.7
p837
ssg32
(lp838
sg34
I0
sg35
I00
sg36
(lp839
g75
asg39
F1.6
sg40
F2.4
sbsS'Anthony Fasano - TEN'
p840
g2
(g3
g4
Ntp841
Rp842
(dp843
g8
S'Anthony Fasano'
p844
sg10
F2.0
sg11
I00
sg12
S'TEN'
p845
sg14
(dp846
g16
V16.1
p847
sg30
V0.3
p848
sg24
V159.0
p849
sg26
V1.9
p850
sg28
V26.5
p851
ssg32
(lp852
sg34
I0
sg35
I00
sg36
(lp853
g90
asg39
F1.6
sg40
F2.4
sbsS'Lance Moore - DET'
p854
g2
(g3
g4
Ntp855
Rp856
(dp857
g8
S'Lance Moore'
p858
sg10
F2.0
sg11
I00
sg12
S'DET'
p859
sg14
(dp860
g16
V4.5
p861
sg18
V0.0
p862
sg20
V0.0
p863
sg22
V0.0
p864
sg24
V56.7
p865
sg26
V0.2
p866
sg28
V6.9
p867
sg30
V0.0
p868
ssg32
(lp869
sg34
I0
sg35
I00
sg36
(lp870
g75
asg39
F1.6
sg40
F2.4
sbsS'DeVier - Posey'
p871
g2
(g3
g4
Ntp872
Rp873
(dp874
g8
S'DeVier'
p875
sg10
F2.0
sg11
I00
sg12
S'Posey'
p876
sg14
(dp877
g16
V6.0
p878
sg18
V0.0
p879
sg20
V0.0
p880
sg22
V0.0
p881
sg24
V77.0
p882
sg26
V0.0
p883
sg28
V7.7
p884
sg30
V0.0
p885
ssg32
(lp886
sg34
I0
sg35
I00
sg36
(lp887
g75
asg39
F1.6
sg40
F2.4
sbsS'Jacquizz Rodgers - CHI'
p888
g2
(g3
g4
Ntp889
Rp890
(dp891
g8
S'Jacquizz Rodgers'
p892
sg10
F2.0
sg11
I00
sg12
S'CHI'
p893
sg14
(dp894
g16
V19.7
p895
sg18
V181.5
p896
sg20
V1.2
p897
sg22
V46.6
p898
sg24
V129.4
p899
sg26
V0.5
p900
sg28
V38.3
p901
sg30
V1.3
p902
ssg32
(lp903
sg34
I0
sg35
I00
sg36
(lp904
g38
asg39
F1.6
sg40
F2.4
sbsS'Greg Jennings - MIA'
p905
g2
(g3
g4
Ntp906
Rp907
(dp908
g8
S'Greg Jennings'
p909
sg10
F2.0
sg11
I00
sg12
S'MIA'
p910
sg14
(dp911
g16
V40.7
p912
sg18
V0.0
p913
sg20
V0.0
p914
sg22
V0.0
p915
sg24
V542.2
p916
sg26
V3.8
p917
sg28
V76.1
p918
sg30
V0.3
p919
ssg32
(lp920
sg34
I0
sg35
I00
sg36
(lp921
g75
asg39
F1.6
sg40
F2.4
sbsS'Dion Sims - MIA'
p922
g2
(g3
g4
Ntp923
Rp924
(dp925
g8
S'Dion Sims'
p926
sg10
F2.0
sg11
I00
sg12
S'MIA'
p927
sg14
(dp928
g16
V21.6
p929
sg30
V0.3
p930
sg24
V238.9
p931
sg26
V1.7
p932
sg28
V33.6
p933
ssg32
(lp934
sg34
I0
sg35
I00
sg36
(lp935
g90
asg39
F1.6
sg40
F2.4
sbsS'Jarvis Landry - MIA'
p936
g2
(g3
g4
Ntp937
Rp938
(dp939
g8
S'Jarvis Landry'
p940
sg10
F2.0
sg11
I00
sg12
S'MIA'
p941
sg14
(dp942
g16
V82.8
p943
sg18
V9.2
p944
sg20
V0.0
p945
sg22
V1.6
p946
sg24
V919.5
p947
sg26
V5.1
p948
sg28
V118.2
p949
sg30
V2.6
p950
ssg32
(lp951
sg34
I0
sg35
I00
sg36
(lp952
g75
asg39
F1.6
sg40
F2.4
sbsS'Alshon Jeffery - CHI'
p953
g2
(g3
g4
Ntp954
Rp955
(dp956
g8
S'Alshon Jeffery'
p957
sg10
F2.0
sg11
I00
sg12
S'CHI'
p958
sg14
(dp959
g16
V85.7
p960
sg18
V29.6
p961
sg20
V0.0
p962
sg22
V4.7
p963
sg24
V1164.2
p964
sg26
V8.7
p965
sg28
V170.8
p966
sg30
V0.3
p967
ssg32
(lp968
sg34
I0
sg35
I00
sg36
(lp969
g75
asg39
F1.6
sg40
F2.4
sbsS'Derek Anderson - CAR'
p970
g2
(g3
g4
Ntp971
Rp972
(dp973
g8
S'Derek Anderson'
p974
sg10
F2.0
sg11
I00
sg12
S'CAR'
p975
sg14
(dp976
g98
V0.7
p977
sg22
V2.7
p978
sg101
V23.9
p979
sg20
V0.0
p980
sg104
V173.6
p981
sg106
V14.3
p982
sg28
V10.8
p983
sg30
V0.2
p984
sg110
V1.2
p985
sg18
V7.2
p986
ssg32
(lp987
sg34
I0
sg35
I00
sg36
(lp988
g115
asg39
F1.6
sg40
F2.4
sbsS'Matt McGloin - OAK'
p989
g2
(g3
g4
Ntp990
Rp991
(dp992
g8
S'Matt McGloin'
p993
sg10
F2.0
sg11
I00
sg12
S'OAK'
p994
sg14
(dp995
g98
V0.1
p996
sg22
V1.2
p997
sg101
V5.0
p998
sg20
V0.0
p999
sg104
V33.3
p1000
sg106
V3.0
p1001
sg28
V1.7
p1002
sg30
V0.1
p1003
sg110
V0.1
p1004
sg18
V2.8
p1005
ssg32
(lp1006
sg34
I0
sg35
I00
sg36
(lp1007
g115
asg39
F1.6
sg40
F2.4
sbsS'Riley Cooper - PHI'
p1008
g2
(g3
g4
Ntp1009
Rp1010
(dp1011
g8
S'Riley Cooper'
p1012
sg10
F2.0
sg11
I00
sg12
S'PHI'
p1013
sg14
(dp1014
g16
V28.4
p1015
sg18
V0.0
p1016
sg20
V0.0
p1017
sg22
V0.0
p1018
sg24
V376.7
p1019
sg26
V2.3
p1020
sg28
V49.4
p1021
sg30
V1.0
p1022
ssg32
(lp1023
sg34
I0
sg35
I00
sg36
(lp1024
g75
asg39
F1.6
sg40
F2.4
sbsS'Antone - Smith'
p1025
g2
(g3
g4
Ntp1026
Rp1027
(dp1028
g8
S'Antone'
p1029
sg10
F2.0
sg11
I00
sg12
S'Smith'
p1030
sg14
(dp1031
g16
V5.9
p1032
sg18
V134.3
p1033
sg20
V0.8
p1034
sg22
V27.1
p1035
sg24
V53.8
p1036
sg26
V0.4
p1037
sg28
V26.0
p1038
sg30
V0.1
p1039
ssg32
(lp1040
sg34
I0
sg35
I00
sg36
(lp1041
g38
asg39
F1.6
sg40
F2.4
sbsS'Ryan Tannehill - MIA'
p1042
g2
(g3
g4
Ntp1043
Rp1044
(dp1045
g8
S'Ryan Tannehill'
p1046
sg10
F2.0
sg11
I00
sg12
S'MIA'
p1047
sg14
(dp1048
g98
V15.1
p1049
sg22
V47.7
p1050
sg101
V586.2
p1051
sg20
V1.5
p1052
sg104
V4148.6
p1053
sg106
V372.8
p1054
sg28
V263.0
p1055
sg30
V4.0
p1056
sg110
V25.6
p1057
sg18
V239.4
p1058
ssg32
(lp1059
sg34
I0
sg35
I00
sg36
(lp1060
g115
asg39
F1.6
sg40
F2.4
sbsS'Case Keenum - STL'
p1061
g2
(g3
g4
Ntp1062
Rp1063
(dp1064
g8
S'Case Keenum'
p1065
sg10
F2.0
sg11
I00
sg12
S'STL'
p1066
sg14
(dp1067
g98
V0.3
p1068
sg22
V0.3
p1069
sg101
V16.3
p1070
sg20
V0.0
p1071
sg104
V110.0
p1072
sg106
V9.7
p1073
sg28
V6.6
p1074
sg30
V0.0
p1075
sg110
V0.7
p1076
sg18
V2.3
p1077
ssg32
(lp1078
sg34
I0
sg35
I00
sg36
(lp1079
g115
asg39
F1.6
sg40
F2.4
sbsS'J.J. Nelson - ARI'
p1080
g2
(g3
g4
Ntp1081
Rp1082
(dp1083
g8
S'J.J. Nelson'
p1084
sg10
F2.0
sg11
I00
sg12
S'ARI'
p1085
sg14
(dp1086
g16
V5.3
p1087
sg18
V0.0
p1088
sg20
V0.0
p1089
sg22
V0.0
p1090
sg24
V63.7
p1091
sg26
V0.3
p1092
sg28
V8.4
p1093
sg30
V0.0
p1094
ssg32
(lp1095
sg34
I0
sg35
I00
sg36
(lp1096
g75
asg39
F1.6
sg40
F2.4
sbsS'Stedman Bailey - STL'
p1097
g2
(g3
g4
Ntp1098
Rp1099
(dp1100
g8
S'Stedman Bailey'
p1101
sg10
F2.0
sg11
I00
sg12
S'STL'
p1102
sg14
(dp1103
g16
V26.9
p1104
sg18
V0.9
p1105
sg20
V0.0
p1106
sg22
V0.1
p1107
sg24
V354.5
p1108
sg26
V1.7
p1109
sg28
V45.4
p1110
sg30
V0.3
p1111
ssg32
(lp1112
sg34
I0
sg35
I00
sg36
(lp1113
g75
asg39
F1.6
sg40
F2.4
sbsS'Griff Whalen - IND'
p1114
g2
(g3
g4
Ntp1115
Rp1116
(dp1117
g8
S'Griff Whalen'
p1118
sg10
F2.0
sg11
I00
sg12
S'IND'
p1119
sg14
(dp1120
g16
V1.9
p1121
sg18
V0.0
p1122
sg20
V0.0
p1123
sg22
V0.0
p1124
sg24
V20.3
p1125
sg26
V0.1
p1126
sg28
V2.4
p1127
sg30
V0.1
p1128
ssg32
(lp1129
sg34
I0
sg35
I00
sg36
(lp1130
g75
asg39
F1.6
sg40
F2.4
sbsS'Derek Carrier - WAS'
p1131
g2
(g3
g4
Ntp1132
Rp1133
(dp1134
g8
S'Derek Carrier'
p1135
sg10
F2.0
sg11
I00
sg12
S'WAS'
p1136
sg14
(dp1137
g16
V21.6
p1138
sg30
V0.5
p1139
sg24
V252.5
p1140
sg26
V1.3
p1141
sg28
V32.1
p1142
ssg32
(lp1143
sg34
I0
sg35
I00
sg36
(lp1144
g90
asg39
F1.6
sg40
F2.4
sbsS'D.J. Williams - WAS'
p1145
g2
(g3
g4
Ntp1146
Rp1147
(dp1148
g8
S'D.J. Williams'
p1149
sg10
F2.0
sg11
I00
sg12
S'WAS'
p1150
sg14
(dp1151
g16
V1.3
p1152
sg30
V0.0
p1153
sg24
V14.8
p1154
sg26
V0.1
p1155
sg28
V2.1
p1156
ssg32
(lp1157
sg34
I0
sg35
I00
sg36
(lp1158
g90
asg39
F1.6
sg40
F2.4
sbsS'Sammie Coates - PIT'
p1159
g2
(g3
g4
Ntp1160
Rp1161
(dp1162
g8
S'Sammie Coates'
p1163
sg10
F2.0
sg11
I00
sg12
S'PIT'
p1164
sg14
(dp1165
g16
V11.1
p1166
sg18
V0.0
p1167
sg20
V0.0
p1168
sg22
V0.0
p1169
sg24
V150.1
p1170
sg26
V0.7
p1171
sg28
V19.0
p1172
sg30
V0.0
p1173
ssg32
(lp1174
sg34
I0
sg35
I00
sg36
(lp1175
g75
asg39
F1.6
sg40
F2.4
sbsS'Rishard Matthews - MIA'
p1176
g2
(g3
g4
Ntp1177
Rp1178
(dp1179
g8
S'Rishard Matthews'
p1180
sg10
F2.0
sg11
I00
sg12
S'MIA'
p1181
sg14
(dp1182
g16
V12.9
p1183
sg18
V0.6
p1184
sg20
V0.0
p1185
sg22
V0.3
p1186
sg24
V162.8
p1187
sg26
V1.0
p1188
sg28
V22.5
p1189
sg30
V0.0
p1190
ssg32
(lp1191
sg34
I0
sg35
I00
sg36
(lp1192
g75
asg39
F1.6
sg40
F2.4
sbsS'Juwan Thompson - DEN'
p1193
g2
(g3
g4
Ntp1194
Rp1195
(dp1196
g8
S'Juwan Thompson'
p1197
sg10
F2.0
sg11
I00
sg12
S'DEN'
p1198
sg14
(dp1199
g16
V3.0
p1200
sg18
V73.5
p1201
sg20
V0.7
p1202
sg22
V16.1
p1203
sg24
V19.6
p1204
sg26
V0.0
p1205
sg28
V13.3
p1206
sg30
V0.1
p1207
ssg32
(lp1208
sg34
I0
sg35
I00
sg36
(lp1209
g38
asg39
F1.6
sg40
F2.4
sbsS'Joseph Randle - DAL'
p1210
g2
(g3
g4
Ntp1211
Rp1212
(dp1213
g8
S'Joseph Randle'
p1214
sg10
F2.0
sg11
I00
sg12
S'DAL'
p1215
sg14
(dp1216
g16
V20.2
p1217
sg18
V899.6
p1218
sg20
V6.1
p1219
sg22
V195.0
p1220
sg24
V151.3
p1221
sg26
V0.6
p1222
sg28
V140.7
p1223
sg30
V2.3
p1224
ssg32
(lp1225
sg34
I0
sg35
I00
sg36
(lp1226
g38
asg39
F1.6
sg40
F2.4
sbsS'Percy Harvin - BUF'
p1227
g2
(g3
g4
Ntp1228
Rp1229
(dp1230
g8
S'Percy Harvin'
p1231
sg10
F2.0
sg11
I00
sg12
S'BUF'
p1232
sg14
(dp1233
g16
V53.4
p1234
sg18
V81.3
p1235
sg20
V0.7
p1236
sg22
V13.6
p1237
sg24
V559.3
p1238
sg26
V3.1
p1239
sg28
V81.1
p1240
sg30
V2.8
p1241
ssg32
(lp1242
sg34
I0
sg35
I00
sg36
(lp1243
g75
asg39
F1.6
sg40
F2.4
sbsS'Dwayne Bowe - CLE'
p1244
g2
(g3
g4
Ntp1245
Rp1246
(dp1247
g8
S'Dwayne Bowe'
p1248
sg10
F2.0
sg11
I00
sg12
S'CLE'
p1249
sg14
(dp1250
g16
V55.6
p1251
sg18
V0.0
p1252
sg20
V0.0
p1253
sg22
V0.0
p1254
sg24
V783.5
p1255
sg26
V3.5
p1256
sg28
V99.1
p1257
sg30
V0.2
p1258
ssg32
(lp1259
sg34
I0
sg35
I00
sg36
(lp1260
g75
asg39
F1.6
sg40
F2.4
sbsS'Demaryius Thomas - DEN'
p1261
g2
(g3
g4
Ntp1262
Rp1263
(dp1264
g8
S'Demaryius Thomas'
p1265
sg10
F2.0
sg11
I00
sg12
S'DEN'
p1266
sg14
(dp1267
g16
V102.1
p1268
sg18
V0.0
p1269
sg20
V0.0
p1270
sg22
V0.0
p1271
sg24
V1413.0
p1272
sg26
V11.5
p1273
sg28
V209.6
p1274
sg30
V0.3
p1275
ssg32
(lp1276
sg34
I0
sg35
I00
sg36
(lp1277
g75
asg39
F1.6
sg40
F2.4
sbsS'Danny Woodhead - SD'
p1278
g2
(g3
g4
Ntp1279
Rp1280
(dp1281
g8
S'Danny Woodhead'
p1282
sg10
F2.0
sg11
I00
sg12
S'SD'
p1283
sg14
(dp1284
g16
V48.0
p1285
sg18
V237.4
p1286
sg20
V1.1
p1287
sg22
V61.6
p1288
sg24
V424.3
p1289
sg26
V2.0
p1290
sg28
V80.8
p1291
sg30
V1.8
p1292
ssg32
(lp1293
sg34
I0
sg35
I00
sg36
(lp1294
g38
asg39
F1.6
sg40
F2.4
sbsS'Gary Barnidge - CLE'
p1295
g2
(g3
g4
Ntp1296
Rp1297
(dp1298
g8
S'Gary Barnidge'
p1299
sg10
F2.0
sg11
I00
sg12
S'CLE'
p1300
sg14
(dp1301
g16
V19.7
p1302
sg30
V0.2
p1303
sg24
V215.3
p1304
sg26
V1.5
p1305
sg28
V30.3
p1306
ssg32
(lp1307
sg34
I0
sg35
I00
sg36
(lp1308
g90
asg39
F1.6
sg40
F2.4
sbsS'Chris Givens - STL'
p1309
g2
(g3
g4
Ntp1310
Rp1311
(dp1312
g8
S'Chris Givens'
p1313
sg10
F2.0
sg11
I00
sg12
S'STL'
p1314
sg14
(dp1315
g16
V5.4
p1316
sg18
V0.2
p1317
sg20
V0.0
p1318
sg22
V0.0
p1319
sg24
V79.7
p1320
sg26
V0.1
p1321
sg28
V8.6
p1322
sg30
V0.0
p1323
ssg32
(lp1324
sg34
I0
sg35
I00
sg36
(lp1325
g75
asg39
F1.6
sg40
F2.4
sbsS'Malcolm Johnson - CLE'
p1326
g2
(g3
g4
Ntp1327
Rp1328
(dp1329
g8
S'Malcolm Johnson'
p1330
sg10
F2.0
sg11
I00
sg12
S'CLE'
p1331
sg14
(dp1332
g16
V0.3
p1333
sg18
V81.3
p1334
sg20
V0.4
p1335
sg22
V20.9
p1336
sg24
V2.8
p1337
sg26
V0.0
p1338
sg28
V0.3
p1339
sg30
V0.0
p1340
ssg32
(lp1341
sg34
I0
sg35
I00
sg36
(lp1342
g38
ag90
asg39
F1.6
sg40
F2.4
sbsS'Luke Stocker - TB'
p1343
g2
(g3
g4
Ntp1344
Rp1345
(dp1346
g8
S'Luke Stocker'
p1347
sg10
F2.0
sg11
I00
sg12
S'TB'
p1348
sg14
(dp1349
g16
V3.1
p1350
sg30
V0.0
p1351
sg24
V25.9
p1352
sg26
V0.1
p1353
sg28
V3.3
p1354
ssg32
(lp1355
sg34
I0
sg35
I00
sg36
(lp1356
g90
asg39
F1.6
sg40
F2.4
sbsS'Devin Hester - ATL'
p1357
g2
(g3
g4
Ntp1358
Rp1359
(dp1360
g8
S'Devin Hester'
p1361
sg10
F2.0
sg11
I00
sg12
S'ATL'
p1362
sg14
(dp1363
g16
V21.7
p1364
sg18
V3.0
p1365
sg20
V0.0
p1366
sg22
V0.7
p1367
sg24
V276.9
p1368
sg26
V1.0
p1369
sg28
V30.5
p1370
sg30
V1.7
p1371
ssg32
(lp1372
sg34
I0
sg35
I00
sg36
(lp1373
g75
asg39
F1.6
sg40
F2.4
sbsS'Jordan Todman - PIT'
p1374
g2
(g3
g4
Ntp1375
Rp1376
(dp1377
g8
S'Jordan Todman'
p1378
sg10
F2.0
sg11
I00
sg12
S'PIT'
p1379
sg14
(dp1380
g16
V1.2
p1381
sg18
V22.6
p1382
sg20
V0.1
p1383
sg22
V4.8
p1384
sg24
V10.3
p1385
sg26
V0.1
p1386
sg28
V4.0
p1387
sg30
V0.1
p1388
ssg32
(lp1389
sg34
I0
sg35
I00
sg36
(lp1390
g38
asg39
F1.6
sg40
F2.4
sbsS'Michael Floyd - ARI'
p1391
g2
(g3
g4
Ntp1392
Rp1393
(dp1394
g8
S'Michael Floyd'
p1395
sg10
F2.0
sg11
I00
sg12
S'ARI'
p1396
sg14
(dp1397
g16
V53.1
p1398
sg18
V0.4
p1399
sg20
V0.0
p1400
sg22
V0.1
p1401
sg24
V820.3
p1402
sg26
V5.9
p1403
sg28
V115.0
p1404
sg30
V1.3
p1405
ssg32
(lp1406
sg34
I0
sg35
I00
sg36
(lp1407
g75
asg39
F1.6
sg40
F2.4
sbsS'Landry Jones - PIT'
p1408
g2
(g3
g4
Ntp1409
Rp1410
(dp1411
g8
S'Landry Jones'
p1412
sg10
F2.0
sg11
I00
sg12
S'PIT'
p1413
sg14
(dp1414
g98
V0.0
p1415
sg22
V0.0
p1416
sg101
V0.0
p1417
sg20
V0.0
p1418
sg104
V0.0
p1419
sg106
V0.0
p1420
sg28
V0.0
p1421
sg30
V0.0
p1422
sg110
V0.0
p1423
sg18
V0.0
p1424
ssg32
(lp1425
sg34
I0
sg35
I00
sg36
(lp1426
g115
asg39
F1.6
sg40
F2.4
sbsS'Andre Ellington - ARI'
p1427
g2
(g3
g4
Ntp1428
Rp1429
(dp1430
g8
S'Andre Ellington'
p1431
sg10
F2.0
sg11
I00
sg12
S'ARI'
p1432
sg14
(dp1433
g16
V50.3
p1434
sg18
V753.4
p1435
sg20
V3.8
p1436
sg22
V186.7
p1437
sg24
V437.1
p1438
sg26
V2.0
p1439
sg28
V148.3
p1440
sg30
V2.7
p1441
ssg32
(lp1442
sg34
I0
sg35
I00
sg36
(lp1443
g38
asg39
F1.6
sg40
F2.4
sbsS'Levine Toilolo - ATL'
p1444
g2
(g3
g4
Ntp1445
Rp1446
(dp1447
g8
S'Levine Toilolo'
p1448
sg10
F2.0
sg11
I00
sg12
S'ATL'
p1449
sg14
(dp1450
g16
V16.5
p1451
sg30
V0.0
p1452
sg24
V151.0
p1453
sg26
V0.9
p1454
sg28
V20.6
p1455
ssg32
(lp1456
sg34
I0
sg35
I00
sg36
(lp1457
g90
asg39
F1.6
sg40
F2.4
sbsS'Steve Smith - BAL'
p1458
g2
(g3
g4
Ntp1459
Rp1460
(dp1461
g8
S'Steve Smith'
p1462
sg10
F2.0
sg11
I00
sg12
S'BAL'
p1463
sg14
(dp1464
g16
V70.6
p1465
sg18
V0.0
p1466
sg20
V0.0
p1467
sg22
V0.0
p1468
sg24
V938.2
p1469
sg26
V5.2
p1470
sg28
V122.7
p1471
sg30
V1.1
p1472
ssg32
(lp1473
sg34
I0
sg35
I00
sg36
(lp1474
g75
asg39
F1.6
sg40
F2.4
sbsS'AJ McCarron - CIN'
p1475
g2
(g3
g4
Ntp1476
Rp1477
(dp1478
g8
S'AJ McCarron'
p1479
sg10
F2.0
sg11
I00
sg12
S'CIN'
p1480
sg14
(dp1481
g98
V0.0
p1482
sg22
V0.1
p1483
sg101
V5.8
p1484
sg20
V0.7
p1485
sg104
V40.2
p1486
sg106
V3.4
p1487
sg28
V5.6
p1488
sg30
V0.0
p1489
sg110
V0.0
p1490
sg18
V0.3
p1491
ssg32
(lp1492
sg34
I0
sg35
I00
sg36
(lp1493
g115
asg39
F1.6
sg40
F2.4
sbsS'Vincent - Brown'
p1494
g2
(g3
g4
Ntp1495
Rp1496
(dp1497
g8
S'Vincent'
p1498
sg10
F2.0
sg11
I00
sg12
S'Brown'
p1499
sg14
(dp1500
g16
V3.3
p1501
sg18
V0.0
p1502
sg20
V0.0
p1503
sg22
V0.0
p1504
sg24
V41.5
p1505
sg26
V0.1
p1506
sg28
V4.8
p1507
sg30
V0.0
p1508
ssg32
(lp1509
sg34
I0
sg35
I00
sg36
(lp1510
g75
asg39
F1.6
sg40
F2.4
sbsS'Bryce Petty - NYJ'
p1511
g2
(g3
g4
Ntp1512
Rp1513
(dp1514
g8
S'Bryce Petty'
p1515
sg10
F2.0
sg11
I00
sg12
S'NYJ'
p1516
sg14
(dp1517
g98
V0.0
p1518
sg22
V0.0
p1519
sg101
V1.0
p1520
sg20
V0.0
p1521
sg104
V5.0
p1522
sg106
V0.0
p1523
sg28
V0.2
p1524
sg30
V0.0
p1525
sg110
V0.0
p1526
sg18
V0.0
p1527
ssg32
(lp1528
sg34
I0
sg35
I00
sg36
(lp1529
g115
asg39
F1.6
sg40
F2.4
sbsS'Will - Johnson'
p1530
g2
(g3
g4
Ntp1531
Rp1532
(dp1533
g8
S'Will'
p1534
sg10
F2.0
sg11
I00
sg12
S'Johnson'
p1535
sg14
(dp1536
g16
V8.9
p1537
sg18
V5.1
p1538
sg20
V0.0
p1539
sg22
V2.0
p1540
sg24
V67.1
p1541
sg26
V0.2
p1542
sg28
V8.3
p1543
sg30
V0.0
p1544
ssg32
(lp1545
sg34
I0
sg35
I00
sg36
(lp1546
g38
asg39
F1.6
sg40
F2.4
sbsS'Travaris Cadet - NE'
p1547
g2
(g3
g4
Ntp1548
Rp1549
(dp1550
g8
S'Travaris Cadet'
p1551
sg10
F2.0
sg11
I00
sg12
S'NE'
p1552
sg14
(dp1553
g16
V10.6
p1554
sg18
V58.7
p1555
sg20
V0.1
p1556
sg22
V13.4
p1557
sg24
V83.8
p1558
sg26
V0.4
p1559
sg28
V16.7
p1560
sg30
V0.3
p1561
ssg32
(lp1562
sg34
I0
sg35
I00
sg36
(lp1563
g38
asg39
F1.6
sg40
F2.4
sbsS'Jeremy Kerley - NYJ'
p1564
g2
(g3
g4
Ntp1565
Rp1566
(dp1567
g8
S'Jeremy Kerley'
p1568
sg10
F2.0
sg11
I00
sg12
S'NYJ'
p1569
sg14
(dp1570
g16
V24.1
p1571
sg18
V6.5
p1572
sg20
V0.0
p1573
sg22
V1.0
p1574
sg24
V300.5
p1575
sg26
V1.8
p1576
sg28
V41.1
p1577
sg30
V0.3
p1578
ssg32
(lp1579
sg34
I0
sg35
I00
sg36
(lp1580
g75
asg39
F1.6
sg40
F2.4
sbsS'Craig Stevens - TEN'
p1581
g2
(g3
g4
Ntp1582
Rp1583
(dp1584
g8
S'Craig Stevens'
p1585
sg10
F2.0
sg11
I00
sg12
S'TEN'
p1586
sg14
(dp1587
g16
V10.7
p1588
sg30
V0.0
p1589
sg24
V125.2
p1590
sg26
V0.9
p1591
sg28
V18.0
p1592
ssg32
(lp1593
sg34
I0
sg35
I00
sg36
(lp1594
g90
asg39
F1.6
sg40
F2.4
sbsS'Matt - Cassel'
p1595
g2
(g3
g4
Ntp1596
Rp1597
(dp1598
g8
S'Matt'
p1599
sg10
F2.0
sg11
I00
sg12
S'Cassel'
p1600
sg14
(dp1601
g98
V2.0
p1602
sg22
V6.0
p1603
sg101
V41.0
p1604
sg20
V0.0
p1605
sg104
V282.5
p1606
sg106
V23.5
p1607
sg28
V13.2
p1608
sg30
V0.0
p1609
sg110
V1.0
p1610
sg18
V18.5
p1611
ssg32
(lp1612
sg34
I0
sg35
I00
sg36
(lp1613
g115
asg39
F1.6
sg40
F2.4
sbsS'Brian Quick - STL'
p1614
g2
(g3
g4
Ntp1615
Rp1616
(dp1617
g8
S'Brian Quick'
p1618
sg10
F2.0
sg11
I00
sg12
S'STL'
p1619
sg14
(dp1620
g16
V51.6
p1621
sg18
V0.0
p1622
sg20
V0.0
p1623
sg22
V0.0
p1624
sg24
V714.9
p1625
sg26
V4.0
p1626
sg28
V95.6
p1627
sg30
V0.0
p1628
ssg32
(lp1629
sg34
I0
sg35
I00
sg36
(lp1630
g75
asg39
F1.6
sg40
F2.4
sbsS'Jacoby - Ford'
p1631
g2
(g3
g4
Ntp1632
Rp1633
(dp1634
g8
S'Jacoby'
p1635
sg10
F2.0
sg11
I00
sg12
S'Ford'
p1636
sg14
(dp1637
g16
V1.5
p1638
sg18
V0.0
p1639
sg20
V0.0
p1640
sg22
V0.0
p1641
sg24
V11.9
p1642
sg26
V0.0
p1643
sg28
V1.0
p1644
sg30
V0.1
p1645
ssg32
(lp1646
sg34
I0
sg35
I00
sg36
(lp1647
g75
asg39
F1.6
sg40
F2.4
sbsS'Jordan Reed - WAS'
p1648
g2
(g3
g4
Ntp1649
Rp1650
(dp1651
g8
S'Jordan Reed'
p1652
sg10
F2.0
sg11
I00
sg12
S'WAS'
p1653
sg14
(dp1654
g16
V60.0
p1655
sg30
V1.5
p1656
sg24
V612.9
p1657
sg26
V3.6
p1658
sg28
V80.1
p1659
ssg32
(lp1660
sg34
I0
sg35
I00
sg36
(lp1661
g90
asg39
F1.6
sg40
F2.4
sbsS'Joseph - Fauria'
p1662
g2
(g3
g4
Ntp1663
Rp1664
(dp1665
g8
S'Joseph'
p1666
sg10
F2.0
sg11
I00
sg12
S'Fauria'
p1667
sg14
(dp1668
g16
V6.4
p1669
sg30
V0.0
p1670
sg24
V72.3
p1671
sg26
V0.7
p1672
sg28
V11.4
p1673
ssg32
(lp1674
sg34
I0
sg35
I00
sg36
(lp1675
g90
asg39
F1.6
sg40
F2.4
sbsS'Marc Mariani - CHI'
p1676
g2
(g3
g4
Ntp1677
Rp1678
(dp1679
g8
S'Marc Mariani'
p1680
sg10
F2.0
sg11
I00
sg12
S'CHI'
p1681
sg14
(dp1682
g16
V3.6
p1683
sg18
V0.0
p1684
sg20
V0.0
p1685
sg22
V0.0
p1686
sg24
V44.8
p1687
sg26
V0.2
p1688
sg28
V5.6
p1689
sg30
V0.0
p1690
ssg32
(lp1691
sg34
I0
sg35
I00
sg36
(lp1692
g75
asg39
F1.6
sg40
F2.4
sbsS'Reggie - Wayne'
p1693
g2
(g3
g4
Ntp1694
Rp1695
(dp1696
g8
S'Reggie'
p1697
sg10
F2.0
sg11
I00
sg12
S'Wayne'
p1698
sg14
(dp1699
g16
V24.0
p1700
sg18
V0.0
p1701
sg20
V0.0
p1702
sg22
V0.0
p1703
sg24
V315.0
p1704
sg26
V1.0
p1705
sg28
V37.5
p1706
sg30
V0.0
p1707
ssg32
(lp1708
sg34
I0
sg35
I00
sg36
(lp1709
g75
asg39
F1.6
sg40
F2.4
sbsS'Ryan - Taylor'
p1710
g2
(g3
g4
Ntp1711
Rp1712
(dp1713
g8
S'Ryan'
p1714
sg10
F2.0
sg11
I00
sg12
S'Taylor'
p1715
sg14
(dp1716
g16
V0.7
p1717
sg30
V0.0
p1718
sg24
V3.0
p1719
sg26
V0.0
p1720
sg28
V0.3
p1721
ssg32
(lp1722
sg34
I0
sg35
I00
sg36
(lp1723
g90
asg39
F1.6
sg40
F2.4
sbsS'Marlon Moore - CLE'
p1724
g2
(g3
g4
Ntp1725
Rp1726
(dp1727
g8
S'Marlon Moore'
p1728
sg10
F2.0
sg11
I00
sg12
S'CLE'
p1729
sg14
(dp1730
g16
V5.8
p1731
sg18
V-0.2
p1732
sg20
V0.0
p1733
sg22
V0.0
p1734
sg24
V71.9
p1735
sg26
V0.2
p1736
sg28
V8.6
p1737
sg30
V0.0
p1738
ssg32
(lp1739
sg34
I0
sg35
I00
sg36
(lp1740
g75
asg39
F1.6
sg40
F2.4
sbsS'Ryan Hewitt - CIN'
p1741
g2
(g3
g4
Ntp1742
Rp1743
(dp1744
g8
S'Ryan Hewitt'
p1745
sg10
F2.0
sg11
I00
sg12
S'CIN'
p1746
sg14
(dp1747
g16
V22.4
p1748
sg18
V52.4
p1749
sg20
V0.4
p1750
sg22
V16.4
p1751
sg24
V228.0
p1752
sg26
V1.5
p1753
sg28
V31.2
p1754
sg30
V0.3
p1755
ssg32
(lp1756
sg34
I0
sg35
I00
sg36
(lp1757
g38
ag90
asg39
F1.6
sg40
F2.4
sbsS'Richard Gordon - KC'
p1758
g2
(g3
g4
Ntp1759
Rp1760
(dp1761
g8
S'Richard Gordon'
p1762
sg10
F2.0
sg11
I00
sg12
S'KC'
p1763
sg14
(dp1764
g16
V3.4
p1765
sg30
V0.0
p1766
sg24
V22.5
p1767
sg26
V0.1
p1768
sg28
V2.7
p1769
ssg32
(lp1770
sg34
I0
sg35
I00
sg36
(lp1771
g90
asg39
F1.6
sg40
F2.4
sbsS'Kamar Aiken - BAL'
p1772
g2
(g3
g4
Ntp1773
Rp1774
(dp1775
g8
S'Kamar Aiken'
p1776
sg10
F2.0
sg11
I00
sg12
S'BAL'
p1777
sg14
(dp1778
g16
V35.0
p1779
sg18
V0.0
p1780
sg20
V0.0
p1781
sg22
V0.0
p1782
sg24
V445.7
p1783
sg26
V3.4
p1784
sg28
V64.7
p1785
sg30
V0.3
p1786
ssg32
(lp1787
sg34
I0
sg35
I00
sg36
(lp1788
g75
asg39
F1.6
sg40
F2.4
sbsS'Andre Johnson - IND'
p1789
g2
(g3
g4
Ntp1790
Rp1791
(dp1792
g8
S'Andre Johnson'
p1793
sg10
F2.0
sg11
I00
sg12
S'IND'
p1794
sg14
(dp1795
g16
V79.8
p1796
sg18
V0.0
p1797
sg20
V0.0
p1798
sg22
V0.0
p1799
sg24
V990.2
p1800
sg26
V7.0
p1801
sg28
V135.2
p1802
sg30
V2.8
p1803
ssg32
(lp1804
sg34
I0
sg35
I00
sg36
(lp1805
g75
asg39
F1.6
sg40
F2.4
sbsS'Alex Smith - KC'
p1806
g2
(g3
g4
Ntp1807
Rp1808
(dp1809
g8
S'Alex Smith'
p1810
sg10
F2.0
sg11
I00
sg12
S'KC'
p1811
sg14
(dp1812
g98
V11.3
p1813
sg22
V55.6
p1814
sg101
V492.2
p1815
sg20
V1.5
p1816
sg104
V3399.5
p1817
sg106
V307.0
p1818
sg28
V230.6
p1819
sg30
V2.6
p1820
sg110
V21.5
p1821
sg18
V275.4
p1822
ssg32
(lp1823
sg34
I0
sg35
I00
sg36
(lp1824
g115
asg39
F1.6
sg40
F2.4
sbsS'Andy Dalton - CIN'
p1825
g2
(g3
g4
Ntp1826
Rp1827
(dp1828
g8
S'Andy Dalton'
p1829
sg10
F2.0
sg11
I00
sg12
S'CIN'
p1830
sg14
(dp1831
g98
V18.3
p1832
sg22
V55.8
p1833
sg101
V531.3
p1834
sg20
V1.9
p1835
sg104
V3662.9
p1836
sg106
V325.9
p1837
sg28
V223.7
p1838
sg30
V3.7
p1839
sg110
V22.7
p1840
sg18
V190.1
p1841
ssg32
(lp1842
sg34
I0
sg35
I00
sg36
(lp1843
g115
asg39
F1.6
sg40
F2.4
sbsS'Troy Niklas - ARI'
p1844
g2
(g3
g4
Ntp1845
Rp1846
(dp1847
g8
S'Troy Niklas'
p1848
sg10
F2.0
sg11
I00
sg12
S'ARI'
p1849
sg14
(dp1850
g16
V13.0
p1851
sg30
V0.0
p1852
sg24
V145.5
p1853
sg26
V1.0
p1854
sg28
V20.3
p1855
ssg32
(lp1856
sg34
I0
sg35
I00
sg36
(lp1857
g90
asg39
F1.6
sg40
F2.4
sbsS'Kenjon Barner - PHI'
p1858
g2
(g3
g4
Ntp1859
Rp1860
(dp1861
g8
S'Kenjon Barner'
p1862
sg10
F2.0
sg11
I00
sg12
S'PHI'
p1863
sg14
(dp1864
g16
V1.0
p1865
sg18
V12.2
p1866
sg20
V0.1
p1867
sg22
V4.0
p1868
sg24
V7.2
p1869
sg26
V0.0
p1870
sg28
V2.5
p1871
sg30
V0.0
p1872
ssg32
(lp1873
sg34
I0
sg35
I00
sg36
(lp1874
g38
asg39
F1.6
sg40
F2.4
sbsS'Eddie Lacy - GB'
p1875
g2
(g3
g4
Ntp1876
Rp1877
(dp1878
g8
S'Eddie Lacy'
p1879
sg10
F2.0
sg11
I00
sg12
S'GB'
p1880
sg14
(dp1881
g16
V46.4
p1882
sg18
V1266.4
p1883
sg20
V9.8
p1884
sg22
V281.1
p1885
sg24
V385.8
p1886
sg26
V2.2
p1887
sg28
V232.2
p1888
sg30
V2.5
p1889
ssg32
(lp1890
sg34
I0
sg35
I00
sg36
(lp1891
g38
asg39
F1.6
sg40
F2.4
sbsS'Alfonso - Smith'
p1892
g2
(g3
g4
Ntp1893
Rp1894
(dp1895
g8
S'Alfonso'
p1896
sg10
F2.0
sg11
I00
sg12
S'Smith'
p1897
sg14
(dp1898
g16
V2.5
p1899
sg18
V10.5
p1900
sg20
V0.0
p1901
sg22
V4.0
p1902
sg24
V15.2
p1903
sg26
V0.0
p1904
sg28
V2.8
p1905
sg30
V0.0
p1906
ssg32
(lp1907
sg34
I0
sg35
I00
sg36
(lp1908
g38
asg39
F1.6
sg40
F2.4
sbsS'Roddy White - ATL'
p1909
g2
(g3
g4
Ntp1910
Rp1911
(dp1912
g8
S'Roddy White'
p1913
sg10
F2.0
sg11
I00
sg12
S'ATL'
p1914
sg14
(dp1915
g16
V71.9
p1916
sg18
V0.0
p1917
sg20
V0.0
p1918
sg22
V0.0
p1919
sg24
V880.8
p1920
sg26
V5.8
p1921
sg28
V118.9
p1922
sg30
V1.9
p1923
ssg32
(lp1924
sg34
I0
sg35
I00
sg36
(lp1925
g75
asg39
F1.6
sg40
F2.4
sbsS'Frankie Hammond - KC'
p1926
g2
(g3
g4
Ntp1927
Rp1928
(dp1929
g8
S'Frankie Hammond'
p1930
sg10
F2.0
sg11
I00
sg12
S'KC'
p1931
sg14
(dp1932
g16
V2.3
p1933
sg18
V0.0
p1934
sg20
V0.0
p1935
sg22
V0.0
p1936
sg24
V34.0
p1937
sg26
V0.1
p1938
sg28
V3.8
p1939
sg30
V0.0
p1940
ssg32
(lp1941
sg34
I0
sg35
I00
sg36
(lp1942
g75
asg39
F1.6
sg40
F2.4
sbsS'Paul Richardson - SEA'
p1943
g2
(g3
g4
Ntp1944
Rp1945
(dp1946
g8
S'Paul Richardson'
p1947
sg10
F2.0
sg11
I00
sg12
S'SEA'
p1948
sg14
(dp1949
g16
V10.5
p1950
sg18
V0.0
p1951
sg20
V0.0
p1952
sg22
V0.0
p1953
sg24
V148.5
p1954
sg26
V0.5
p1955
sg28
V17.9
p1956
sg30
V0.0
p1957
ssg32
(lp1958
sg34
I0
sg35
I00
sg36
(lp1959
g75
asg39
F1.6
sg40
F2.4
sbsS'Antonio Andrews - TEN'
p1960
g2
(g3
g4
Ntp1961
Rp1962
(dp1963
g8
S'Antonio Andrews'
p1964
sg10
F2.0
sg11
I00
sg12
S'TEN'
p1965
sg14
(dp1966
g16
V2.8
p1967
sg18
V10.7
p1968
sg20
V0.1
p1969
sg22
V3.3
p1970
sg24
V18.7
p1971
sg26
V0.1
p1972
sg28
V3.5
p1973
sg30
V0.0
p1974
ssg32
(lp1975
sg34
I0
sg35
I00
sg36
(lp1976
g38
asg39
F1.6
sg40
F2.4
sbsS'Marshawn Lynch - SEA'
p1977
g2
(g3
g4
Ntp1978
Rp1979
(dp1980
g8
S'Marshawn Lynch'
p1981
sg10
F2.0
sg11
I00
sg12
S'SEA'
p1982
sg14
(dp1983
g16
V39.1
p1984
sg18
V1336.6
p1985
sg20
V10.1
p1986
sg22
V284.3
p1987
sg24
V341.7
p1988
sg26
V2.4
p1989
sg28
V237.8
p1990
sg30
V2.4
p1991
ssg32
(lp1992
sg34
I0
sg35
I00
sg36
(lp1993
g38
asg39
F1.6
sg40
F2.4
sbsS'Tom Brady - NE'
p1994
g2
(g3
g4
Ntp1995
Rp1996
(dp1997
g8
S'Tom Brady'
p1998
sg10
F2.0
sg11
I00
sg12
S'NE'
p1999
sg14
(dp2000
g98
V11.8
p2001
sg22
V32.2
p2002
sg101
V602.1
p2003
sg20
V1.2
p2004
sg104
V4343.6
p2005
sg106
V383.0
p2006
sg28
V280.5
p2007
sg30
V3.0
p2008
sg110
V30.8
p2009
sg18
V61.1
p2010
ssg32
(lp2011
sg34
I0
sg35
I00
sg36
(lp2012
g115
asg39
F1.6
sg40
F2.4
sbsS'Joique Bell - DET'
p2013
g2
(g3
g4
Ntp2014
Rp2015
(dp2016
g8
S'Joique Bell'
p2017
sg10
F2.0
sg11
I00
sg12
S'DET'
p2018
sg14
(dp2019
g16
V32.9
p2020
sg18
V725.2
p2021
sg20
V5.9
p2022
sg22
V178.2
p2023
sg24
V295.8
p2024
sg26
V0.9
p2025
sg28
V139.8
p2026
sg30
V1.8
p2027
ssg32
(lp2028
sg34
I0
sg35
I00
sg36
(lp2029
g38
asg39
F1.6
sg40
F2.4
sbsS'Jeff Cumberland - NYJ'
p2030
g2
(g3
g4
Ntp2031
Rp2032
(dp2033
g8
S'Jeff Cumberland'
p2034
sg10
F2.0
sg11
I00
sg12
S'NYJ'
p2035
sg14
(dp2036
g16
V33.0
p2037
sg30
V0.3
p2038
sg24
V371.6
p2039
sg26
V3.3
p2040
sg28
V56.2
p2041
ssg32
(lp2042
sg34
I0
sg35
I00
sg36
(lp2043
g90
asg39
F1.6
sg40
F2.4
sbsS'Mike Davis - SF'
p2044
g2
(g3
g4
Ntp2045
Rp2046
(dp2047
g8
S'Mike Davis'
p2048
sg10
F2.0
sg11
I00
sg12
S'SF'
p2049
sg14
(dp2050
g16
V2.0
p2051
sg18
V33.0
p2052
sg20
V0.0
p2053
sg22
V9.0
p2054
sg24
V15.0
p2055
sg26
V0.0
p2056
sg28
V4.8
p2057
sg30
V0.0
p2058
ssg32
(lp2059
sg34
I0
sg35
I00
sg36
(lp2060
g38
asg39
F1.6
sg40
F2.4
sbsS'Brandon Myers - TB'
p2061
g2
(g3
g4
Ntp2062
Rp2063
(dp2064
g8
S'Brandon Myers'
p2065
sg10
F2.0
sg11
I00
sg12
S'TB'
p2066
sg14
(dp2067
g16
V19.0
p2068
sg30
V0.4
p2069
sg24
V186.3
p2070
sg26
V0.9
p2071
sg28
V23.3
p2072
ssg32
(lp2073
sg34
I0
sg35
I00
sg36
(lp2074
g90
asg39
F1.6
sg40
F2.4
sbsS'T.J. Yeldon - JAC'
p2075
g2
(g3
g4
Ntp2076
Rp2077
(dp2078
g8
S'T.J. Yeldon'
p2079
sg10
F2.0
sg11
I00
sg12
S'JAC'
p2080
sg14
(dp2081
g16
V33.8
p2082
sg18
V846.4
p2083
sg20
V5.2
p2084
sg22
V192.2
p2085
sg24
V259.8
p2086
sg26
V1.1
p2087
sg28
V145.8
p2088
sg30
V1.2
p2089
ssg32
(lp2090
sg34
I0
sg35
I00
sg36
(lp2091
g38
asg39
F1.6
sg40
F2.4
sbsS'Keshawn Martin - HOU'
p2092
g2
(g3
g4
Ntp2093
Rp2094
(dp2095
g8
S'Keshawn Martin'
p2096
sg10
F2.0
sg11
I00
sg12
S'HOU'
p2097
sg14
(dp2098
g16
V4.2
p2099
sg18
V0.0
p2100
sg20
V0.0
p2101
sg22
V0.0
p2102
sg24
V48.0
p2103
sg26
V0.2
p2104
sg28
V5.8
p2105
sg30
V0.0
p2106
ssg32
(lp2107
sg34
I0
sg35
I00
sg36
(lp2108
g75
asg39
F1.6
sg40
F2.4
sbsS'Justin Hunter - TEN'
p2109
g2
(g3
g4
Ntp2110
Rp2111
(dp2112
g8
S'Justin Hunter'
p2113
sg10
F2.0
sg11
I00
sg12
S'TEN'
p2114
sg14
(dp2115
g16
V20.6
p2116
sg18
V0.0
p2117
sg20
V0.0
p2118
sg22
V0.0
p2119
sg24
V341.8
p2120
sg26
V1.7
p2121
sg28
V43.8
p2122
sg30
V0.3
p2123
ssg32
(lp2124
sg34
I0
sg35
I00
sg36
(lp2125
g75
asg39
F1.6
sg40
F2.4
sbsS'Jimmy Clausen - CHI'
p2126
g2
(g3
g4
Ntp2127
Rp2128
(dp2129
g8
S'Jimmy Clausen'
p2130
sg10
F2.0
sg11
I00
sg12
S'CHI'
p2131
sg14
(dp2132
g98
V0.5
p2133
sg22
V1.6
p2134
sg101
V21.8
p2135
sg20
V0.0
p2136
sg104
V141.7
p2137
sg106
V12.5
p2138
sg28
V8.0
p2139
sg30
V0.2
p2140
sg110
V0.7
p2141
sg18
V5.7
p2142
ssg32
(lp2143
sg34
I0
sg35
I00
sg36
(lp2144
g115
asg39
F1.6
sg40
F2.4
sbsS'Sean Renfree - ATL'
p2145
g2
(g3
g4
Ntp2146
Rp2147
(dp2148
g8
S'Sean Renfree'
p2149
sg10
F2.0
sg11
I00
sg12
S'ATL'
p2150
sg14
(dp2151
g98
V1.1
p2152
sg22
V2.7
p2153
sg101
V37.9
p2154
sg20
V0.1
p2155
sg104
V264.9
p2156
sg106
V23.2
p2157
sg28
V15.8
p2158
sg30
V0.3
p2159
sg110
V1.6
p2160
sg18
V9.6
p2161
ssg32
(lp2162
sg34
I0
sg35
I00
sg36
(lp2163
g115
asg39
F1.6
sg40
F2.4
sbsS'Toby Gerhart - JAC'
p2164
g2
(g3
g4
Ntp2165
Rp2166
(dp2167
g8
S'Toby Gerhart'
p2168
sg10
F2.0
sg11
I00
sg12
S'JAC'
p2169
sg14
(dp2170
g16
V16.0
p2171
sg18
V155.4
p2172
sg20
V1.2
p2173
sg22
V39.1
p2174
sg24
V130.0
p2175
sg26
V0.4
p2176
sg28
V35.7
p2177
sg30
V1.3
p2178
ssg32
(lp2179
sg34
I0
sg35
I00
sg36
(lp2180
g38
asg39
F1.6
sg40
F2.4
sbsS'Eric Decker - NYJ'
p2181
g2
(g3
g4
Ntp2182
Rp2183
(dp2184
g8
S'Eric Decker'
p2185
sg10
F2.0
sg11
I00
sg12
S'NYJ'
p2186
sg14
(dp2187
g16
V65.0
p2188
sg18
V0.0
p2189
sg20
V0.0
p2190
sg22
V0.0
p2191
sg24
V870.8
p2192
sg26
V4.9
p2193
sg28
V116.1
p2194
sg30
V0.3
p2195
ssg32
(lp2196
sg34
I0
sg35
I00
sg36
(lp2197
g75
asg39
F1.6
sg40
F2.4
sbsS'Christion Jones - MIA'
p2198
g2
(g3
g4
Ntp2199
Rp2200
(dp2201
g8
S'Christion Jones'
p2202
sg10
F2.0
sg11
I00
sg12
S'MIA'
p2203
sg14
(dp2204
g16
V1.6
p2205
sg18
V0.0
p2206
sg20
V0.0
p2207
sg22
V0.0
p2208
sg24
V19.4
p2209
sg26
V0.1
p2210
sg28
V2.5
p2211
sg30
V0.0
p2212
ssg32
(lp2213
sg34
I0
sg35
I00
sg36
(lp2214
g75
asg39
F1.6
sg40
F2.4
sbsS'Shonn - Greene'
p2215
g2
(g3
g4
Ntp2216
Rp2217
(dp2218
g8
S'Shonn'
p2219
sg10
F2.0
sg11
I00
sg12
S'Greene'
p2220
sg14
(dp2221
g16
V6.5
p2222
sg18
V127.3
p2223
sg20
V1.1
p2224
sg22
V32.9
p2225
sg24
V55.0
p2226
sg26
V0.1
p2227
sg28
V25.3
p2228
sg30
V0.0
p2229
ssg32
(lp2230
sg34
I0
sg35
I00
sg36
(lp2231
g38
asg39
F1.6
sg40
F2.4
sbsS'Denard Robinson - JAC'
p2232
g2
(g3
g4
Ntp2233
Rp2234
(dp2235
g8
S'Denard Robinson'
p2236
sg10
F2.0
sg11
I00
sg12
S'JAC'
p2237
sg14
(dp2238
g16
V24.7
p2239
sg18
V395.7
p2240
sg20
V2.3
p2241
sg22
V93.0
p2242
sg24
V157.3
p2243
sg26
V0.7
p2244
sg28
V67.3
p2245
sg30
V2.9
p2246
ssg32
(lp2247
sg34
I0
sg35
I00
sg36
(lp2248
g38
asg39
F1.6
sg40
F2.4
sbsS'Demetrius Harris - KC'
p2249
g2
(g3
g4
Ntp2250
Rp2251
(dp2252
g8
S'Demetrius Harris'
p2253
sg10
F2.0
sg11
I00
sg12
S'KC'
p2254
sg14
(dp2255
g16
V9.1
p2256
sg30
V0.0
p2257
sg24
V87.0
p2258
sg26
V0.6
p2259
sg28
V12.0
p2260
ssg32
(lp2261
sg34
I0
sg35
I00
sg36
(lp2262
g90
asg39
F1.6
sg40
F2.4
sbsS'Cedric Peerman - CIN'
p2263
g2
(g3
g4
Ntp2264
Rp2265
(dp2266
g8
S'Cedric Peerman'
p2267
sg10
F2.0
sg11
I00
sg12
S'CIN'
p2268
sg14
(dp2269
g16
V4.2
p2270
sg18
V8.1
p2271
sg20
V0.0
p2272
sg22
V2.8
p2273
sg24
V33.2
p2274
sg26
V0.1
p2275
sg28
V4.5
p2276
sg30
V0.1
p2277
ssg32
(lp2278
sg34
I0
sg35
I00
sg36
(lp2279
g38
asg39
F1.6
sg40
F2.4
sbsS'Zach Ertz - PHI'
p2280
g2
(g3
g4
Ntp2281
Rp2282
(dp2283
g8
S'Zach Ertz'
p2284
sg10
F2.0
sg11
I00
sg12
S'PHI'
p2285
sg14
(dp2286
g16
V54.4
p2287
sg30
V1.1
p2288
sg24
V672.5
p2289
sg26
V4.8
p2290
sg28
V93.8
p2291
ssg32
(lp2292
sg34
I0
sg35
I00
sg36
(lp2293
g90
asg39
F1.6
sg40
F2.4
sbsS'Sean McGrath - IND'
p2294
g2
(g3
g4
Ntp2295
Rp2296
(dp2297
g8
S'Sean McGrath'
p2298
sg10
F2.0
sg11
I00
sg12
S'IND'
p2299
sg14
(dp2300
g16
V3.7
p2301
sg30
V0.0
p2302
sg24
V44.6
p2303
sg26
V0.3
p2304
sg28
V6.3
p2305
ssg32
(lp2306
sg34
I0
sg35
I00
sg36
(lp2307
g90
asg39
F1.6
sg40
F2.4
sbsS'Kevin Dorsey - NE'
p2308
g2
(g3
g4
Ntp2309
Rp2310
(dp2311
g8
S'Kevin Dorsey'
p2312
sg10
F2.0
sg11
I00
sg12
S'NE'
p2313
sg14
(dp2314
g16
V4.7
p2315
sg18
V0.0
p2316
sg20
V0.0
p2317
sg22
V0.0
p2318
sg24
V55.5
p2319
sg26
V0.4
p2320
sg28
V7.7
p2321
sg30
V0.0
p2322
ssg32
(lp2323
sg34
I0
sg35
I00
sg36
(lp2324
g75
asg39
F1.6
sg40
F2.4
sbsS'Ryan Mallett - HOU'
p2325
g2
(g3
g4
Ntp2326
Rp2327
(dp2328
g8
S'Ryan Mallett'
p2329
sg10
F2.0
sg11
I00
sg12
S'HOU'
p2330
sg14
(dp2331
g98
V3.5
p2332
sg22
V15.7
p2333
sg101
V130.6
p2334
sg20
V0.4
p2335
sg104
V941.9
p2336
sg106
V78.4
p2337
sg28
V54.9
p2338
sg30
V0.4
p2339
sg110
V4.8
p2340
sg18
V35.9
p2341
ssg32
(lp2342
sg34
I0
sg35
I00
sg36
(lp2343
g115
asg39
F1.6
sg40
F2.4
sbsS'Doug Martin - TB'
p2344
g2
(g3
g4
Ntp2345
Rp2346
(dp2347
g8
S'Doug Martin'
p2348
sg10
F2.0
sg11
I00
sg12
S'TB'
p2349
sg14
(dp2350
g16
V24.2
p2351
sg18
V746.9
p2352
sg20
V4.5
p2353
sg22
V189.7
p2354
sg24
V149.6
p2355
sg26
V0.2
p2356
sg28
V114.5
p2357
sg30
V1.5
p2358
ssg32
(lp2359
sg34
I0
sg35
I00
sg36
(lp2360
g38
asg39
F1.6
sg40
F2.4
sbsS'DeAndre Hopkins - HOU'
p2361
g2
(g3
g4
Ntp2362
Rp2363
(dp2364
g8
S'DeAndre Hopkins'
p2365
sg10
F2.0
sg11
I00
sg12
S'HOU'
p2366
sg14
(dp2367
g16
V83.2
p2368
sg18
V0.0
p2369
sg20
V0.0
p2370
sg22
V0.0
p2371
sg24
V1172.4
p2372
sg26
V6.3
p2373
sg28
V152.2
p2374
sg30
V1.4
p2375
ssg32
(lp2376
sg34
I0
sg35
I00
sg36
(lp2377
g75
asg39
F1.6
sg40
F2.4
sbsS'Cole Beasley - DAL'
p2378
g2
(g3
g4
Ntp2379
Rp2380
(dp2381
g8
S'Cole Beasley'
p2382
sg10
F2.0
sg11
I00
sg12
S'DAL'
p2383
sg14
(dp2384
g16
V45.3
p2385
sg18
V0.0
p2386
sg20
V0.0
p2387
sg22
V0.0
p2388
sg24
V522.5
p2389
sg26
V3.5
p2390
sg28
V70.0
p2391
sg30
V1.7
p2392
ssg32
(lp2393
sg34
I0
sg35
I00
sg36
(lp2394
g75
asg39
F1.6
sg40
F2.4
sbsS'Sam Bradford - PHI'
p2395
g2
(g3
g4
Ntp2396
Rp2397
(dp2398
g8
S'Sam Bradford'
p2399
sg10
F2.0
sg11
I00
sg12
S'PHI'
p2400
sg14
(dp2401
g98
V13.0
p2402
sg22
V39.2
p2403
sg101
V512.6
p2404
sg20
V1.2
p2405
sg104
V3753.0
p2406
sg106
V314.3
p2407
sg28
V235.2
p2408
sg30
V3.4
p2409
sg110
V24.5
p2410
sg18
V130.9
p2411
ssg32
(lp2412
sg34
I0
sg35
I00
sg36
(lp2413
g115
asg39
F1.6
sg40
F2.4
sbsS'Dorial Green-Beckham - TEN'
p2414
g2
(g3
g4
Ntp2415
Rp2416
(dp2417
g8
S'Dorial Green-Beckham'
p2418
sg10
F2.0
sg11
I00
sg12
S'TEN'
p2419
sg14
(dp2420
g16
V27.3
p2421
sg18
V0.0
p2422
sg20
V0.0
p2423
sg22
V0.0
p2424
sg24
V383.1
p2425
sg26
V2.2
p2426
sg28
V50.4
p2427
sg30
V0.5
p2428
ssg32
(lp2429
sg34
I0
sg35
I00
sg36
(lp2430
g75
asg39
F1.6
sg40
F2.4
sbsS'Vincent Jackson - TB'
p2431
g2
(g3
g4
Ntp2432
Rp2433
(dp2434
g8
S'Vincent Jackson'
p2435
sg10
F2.0
sg11
I00
sg12
S'TB'
p2436
sg14
(dp2437
g16
V66.0
p2438
sg18
V-0.2
p2439
sg20
V0.0
p2440
sg22
V0.1
p2441
sg24
V978.1
p2442
sg26
V4.8
p2443
sg28
V124.6
p2444
sg30
V1.0
p2445
ssg32
(lp2446
sg34
I0
sg35
I00
sg36
(lp2447
g75
asg39
F1.6
sg40
F2.4
sbsS'Storm - Johnson'
p2448
g2
(g3
g4
Ntp2449
Rp2450
(dp2451
g8
S'Storm'
p2452
sg10
F2.0
sg11
I00
sg12
S'Johnson'
p2453
sg14
(dp2454
g16
V0.0
p2455
sg18
V14.0
p2456
sg20
V0.0
p2457
sg22
V4.0
p2458
sg24
V0.0
p2459
sg26
V0.0
p2460
sg28
V1.4
p2461
sg30
V0.0
p2462
ssg32
(lp2463
sg34
I0
sg35
I00
sg36
(lp2464
g38
asg39
F1.6
sg40
F2.4
sbsS'Heath Miller - PIT'
p2465
g2
(g3
g4
Ntp2466
Rp2467
(dp2468
g8
S'Heath Miller'
p2469
sg10
F2.0
sg11
I00
sg12
S'PIT'
p2470
sg14
(dp2471
g16
V57.5
p2472
sg30
V2.3
p2473
sg24
V628.2
p2474
sg26
V3.7
p2475
sg28
V80.3
p2476
ssg32
(lp2477
sg34
I0
sg35
I00
sg36
(lp2478
g90
asg39
F1.6
sg40
F2.4
sbsS'Roosevelt Nix - PIT'
p2479
g2
(g3
g4
Ntp2480
Rp2481
(dp2482
g8
S'Roosevelt Nix'
p2483
sg10
F2.0
sg11
I00
sg12
S'PIT'
p2484
sg14
(dp2485
g16
V0.0
p2486
sg18
V0.4
p2487
sg20
V0.0
p2488
sg22
V0.1
p2489
sg24
V0.5
p2490
sg26
V0.0
p2491
sg28
V0.1
p2492
sg30
V0.0
p2493
ssg32
(lp2494
sg34
I0
sg35
I00
sg36
(lp2495
g38
asg39
F1.6
sg40
F2.4
sbsS'Dez Bryant - DAL'
p2496
g2
(g3
g4
Ntp2497
Rp2498
(dp2499
g8
S'Dez Bryant'
p2500
sg10
F2.0
sg11
I00
sg12
S'DAL'
p2501
sg14
(dp2502
g16
V89.5
p2503
sg18
V0.5
p2504
sg20
V0.0
p2505
sg22
V0.1
p2506
sg24
V1326.4
p2507
sg26
V11.8
p2508
sg28
V202.4
p2509
sg30
V0.4
p2510
ssg32
(lp2511
sg34
I0
sg35
I00
sg36
(lp2512
g75
asg39
F1.6
sg40
F2.4
sbsS'Cooper Helfet - SEA'
p2513
g2
(g3
g4
Ntp2514
Rp2515
(dp2516
g8
S'Cooper Helfet'
p2517
sg10
F2.0
sg11
I00
sg12
S'SEA'
p2518
sg14
(dp2519
g16
V4.7
p2520
sg30
V0.0
p2521
sg24
V59.2
p2522
sg26
V0.6
p2523
sg28
V9.4
p2524
ssg32
(lp2525
sg34
I0
sg35
I00
sg36
(lp2526
g90
asg39
F1.6
sg40
F2.4
sbsS'Nick Foles - STL'
p2527
g2
(g3
g4
Ntp2528
Rp2529
(dp2530
g8
S'Nick Foles'
p2531
sg10
F2.0
sg11
I00
sg12
S'STL'
p2532
sg14
(dp2533
g98
V14.7
p2534
sg22
V39.5
p2535
sg101
V500.9
p2536
sg20
V1.0
p2537
sg104
V3467.8
p2538
sg106
V305.7
p2539
sg28
V206.8
p2540
sg30
V3.3
p2541
sg110
V20.3
p2542
sg18
V168.3
p2543
ssg32
(lp2544
sg34
I0
sg35
I00
sg36
(lp2545
g115
asg39
F1.6
sg40
F2.4
sbsS'Geno Smith - NYJ'
p2546
g2
(g3
g4
Ntp2547
Rp2548
(dp2549
g8
S'Geno Smith'
p2550
sg10
F2.0
sg11
I00
sg12
S'NYJ'
p2551
sg14
(dp2552
g98
V6.9
p2553
sg22
V25.3
p2554
sg101
V190.4
p2555
sg20
V1.0
p2556
sg104
V1309.9
p2557
sg106
V111.5
p2558
sg28
V85.2
p2559
sg30
V1.5
p2560
sg110
V7.9
p2561
sg18
V119.5
p2562
ssg32
(lp2563
sg34
I0
sg35
I00
sg36
(lp2564
g115
asg39
F1.6
sg40
F2.4
sbsS'Adrian Peterson - MIN'
p2565
g2
(g3
g4
Ntp2566
Rp2567
(dp2568
g8
S'Adrian Peterson'
p2569
sg10
F2.0
sg11
I00
sg12
S'MIN'
p2570
sg14
(dp2571
g16
V41.6
p2572
sg18
V1318.3
p2573
sg20
V9.8
p2574
sg22
V282.5
p2575
sg24
V303.7
p2576
sg26
V1.4
p2577
sg28
V225.6
p2578
sg30
V2.0
p2579
ssg32
(lp2580
sg34
I0
sg35
I00
sg36
(lp2581
g38
asg39
F1.6
sg40
F2.4
sbsS'David Johnson - ARI'
p2582
g2
(g3
g4
Ntp2583
Rp2584
(dp2585
g8
S'David Johnson'
p2586
sg10
F2.0
sg11
I00
sg12
S'ARI'
p2587
sg14
(dp2588
g16
V23.7
p2589
sg18
V383.4
p2590
sg20
V2.7
p2591
sg22
V96.0
p2592
sg24
V192.4
p2593
sg26
V0.5
p2594
sg28
V74.5
p2595
sg30
V1.3
p2596
ssg32
(lp2597
sg34
I0
sg35
I00
sg36
(lp2598
g38
asg39
F1.6
sg40
F2.4
sbsS'Chris Hogan - BUF'
p2599
g2
(g3
g4
Ntp2600
Rp2601
(dp2602
g8
S'Chris Hogan'
p2603
sg10
F2.0
sg11
I00
sg12
S'BUF'
p2604
sg14
(dp2605
g16
V15.5
p2606
sg18
V0.0
p2607
sg20
V0.0
p2608
sg22
V0.0
p2609
sg24
V183.3
p2610
sg26
V1.4
p2611
sg28
V22.0
p2612
sg30
V2.4
p2613
ssg32
(lp2614
sg34
I0
sg35
I00
sg36
(lp2615
g75
asg39
F1.6
sg40
F2.4
sbsS'Trey Burton - PHI'
p2616
g2
(g3
g4
Ntp2617
Rp2618
(dp2619
g8
S'Trey Burton'
p2620
sg10
F2.0
sg11
I00
sg12
S'PHI'
p2621
sg14
(dp2622
g16
V6.8
p2623
sg30
V0.0
p2624
sg24
V67.6
p2625
sg26
V0.5
p2626
sg28
V9.7
p2627
ssg32
(lp2628
sg34
I0
sg35
I00
sg36
(lp2629
g90
asg39
F1.6
sg40
F2.4
sbsS'Clive Walford - OAK'
p2630
g2
(g3
g4
Ntp2631
Rp2632
(dp2633
g8
S'Clive Walford'
p2634
sg10
F2.0
sg11
I00
sg12
S'OAK'
p2635
sg14
(dp2636
g16
V18.9
p2637
sg30
V0.0
p2638
sg24
V217.7
p2639
sg26
V1.7
p2640
sg28
V32.0
p2641
ssg32
(lp2642
sg34
I0
sg35
I00
sg36
(lp2643
g90
asg39
F1.6
sg40
F2.4
sbsS'T.Y. Hilton - IND'
p2644
g2
(g3
g4
Ntp2645
Rp2646
(dp2647
g8
S'T.Y. Hilton'
p2648
sg10
F2.0
sg11
I00
sg12
S'IND'
p2649
sg14
(dp2650
g16
V86.2
p2651
sg18
V14.6
p2652
sg20
V0.0
p2653
sg22
V2.3
p2654
sg24
V1234.0
p2655
sg26
V7.3
p2656
sg28
V166.8
p2657
sg30
V0.8
p2658
ssg32
(lp2659
sg34
I0
sg35
I00
sg36
(lp2660
g75
asg39
F1.6
sg40
F2.4
sbsS'Louis Murphy - TB'
p2661
g2
(g3
g4
Ntp2662
Rp2663
(dp2664
g8
S'Louis Murphy'
p2665
sg10
F2.0
sg11
I00
sg12
S'TB'
p2666
sg14
(dp2667
g16
V28.8
p2668
sg18
V0.0
p2669
sg20
V0.0
p2670
sg22
V0.0
p2671
sg24
V356.9
p2672
sg26
V1.7
p2673
sg28
V44.4
p2674
sg30
V0.8
p2675
ssg32
(lp2676
sg34
I0
sg35
I00
sg36
(lp2677
g75
asg39
F1.6
sg40
F2.4
sbsS'Matt Moore - MIA'
p2678
g2
(g3
g4
Ntp2679
Rp2680
(dp2681
g8
S'Matt Moore'
p2682
sg10
F2.0
sg11
I00
sg12
S'MIA'
p2683
sg14
(dp2684
g98
V0.1
p2685
sg22
V0.6
p2686
sg101
V5.5
p2687
sg20
V0.0
p2688
sg104
V40.5
p2689
sg106
V3.4
p2690
sg28
V2.0
p2691
sg30
V0.1
p2692
sg110
V0.2
p2693
sg18
V0.0
p2694
ssg32
(lp2695
sg34
I0
sg35
I00
sg36
(lp2696
g115
asg39
F1.6
sg40
F2.4
sbsS'Zac Stacy - NYJ'
p2697
g2
(g3
g4
Ntp2698
Rp2699
(dp2700
g8
S'Zac Stacy'
p2701
sg10
F2.0
sg11
I00
sg12
S'NYJ'
p2702
sg14
(dp2703
g16
V3.2
p2704
sg18
V140.7
p2705
sg20
V0.4
p2706
sg22
V34.6
p2707
sg24
V22.8
p2708
sg26
V0.1
p2709
sg28
V17.4
p2710
sg30
V0.9
p2711
ssg32
(lp2712
sg34
I0
sg35
I00
sg36
(lp2713
g38
asg39
F1.6
sg40
F2.4
sbsS"Le'Veon Bell - PIT"
p2714
g2
(g3
g4
Ntp2715
Rp2716
(dp2717
g8
S"Le'Veon Bell"
p2718
sg10
F2.0
sg11
I00
sg12
S'PIT'
p2719
sg14
(dp2720
g16
V66.1
p2721
sg18
V1056.0
p2722
sg20
V7.4
p2723
sg22
V237.9
p2724
sg24
V573.6
p2725
sg26
V2.4
p2726
sg28
V218.7
p2727
sg30
V1.3
p2728
ssg32
(lp2729
sg34
I0
sg35
I00
sg36
(lp2730
g38
asg39
F1.6
sg40
F2.4
sbsS'Andre Caldwell - DEN'
p2731
g2
(g3
g4
Ntp2732
Rp2733
(dp2734
g8
S'Andre Caldwell'
p2735
sg10
F2.0
sg11
I00
sg12
S'DEN'
p2736
sg14
(dp2737
g16
V18.2
p2738
sg18
V1.0
p2739
sg20
V0.0
p2740
sg22
V0.2
p2741
sg24
V242.4
p2742
sg26
V1.0
p2743
sg28
V29.9
p2744
sg30
V0.3
p2745
ssg32
(lp2746
sg34
I0
sg35
I00
sg36
(lp2747
g75
asg39
F1.6
sg40
F2.4
sbsS'Amari Cooper - OAK'
p2748
g2
(g3
g4
Ntp2749
Rp2750
(dp2751
g8
S'Amari Cooper'
p2752
sg10
F2.0
sg11
I00
sg12
S'OAK'
p2753
sg14
(dp2754
g16
V70.4
p2755
sg18
V8.3
p2756
sg20
V0.0
p2757
sg22
V1.3
p2758
sg24
V919.5
p2759
sg26
V5.3
p2760
sg28
V123.4
p2761
sg30
V0.6
p2762
ssg32
(lp2763
sg34
I0
sg35
I00
sg36
(lp2764
g75
asg39
F1.6
sg40
F2.4
sbsS'Tyler Eifert - CIN'
p2765
g2
(g3
g4
Ntp2766
Rp2767
(dp2768
g8
S'Tyler Eifert'
p2769
sg10
F2.0
sg11
I00
sg12
S'CIN'
p2770
sg14
(dp2771
g16
V52.7
p2772
sg30
V0.3
p2773
sg24
V541.0
p2774
sg26
V3.6
p2775
sg28
V75.0
p2776
ssg32
(lp2777
sg34
I0
sg35
I00
sg36
(lp2778
g90
asg39
F1.6
sg40
F2.4
sbsS'Rodney - Smith'
p2779
g2
(g3
g4
Ntp2780
Rp2781
(dp2782
g8
S'Rodney'
p2783
sg10
F2.0
sg11
I00
sg12
S'Smith'
p2784
sg14
(dp2785
g16
V4.4
p2786
sg18
V0.0
p2787
sg20
V0.0
p2788
sg22
V0.0
p2789
sg24
V49.8
p2790
sg26
V0.0
p2791
sg28
V5.0
p2792
sg30
V0.0
p2793
ssg32
(lp2794
sg34
I0
sg35
I00
sg36
(lp2795
g75
asg39
F1.6
sg40
F2.4
sbsS'Brian Hoyer - HOU'
p2796
g2
(g3
g4
Ntp2797
Rp2798
(dp2799
g8
S'Brian Hoyer'
p2800
sg10
F2.0
sg11
I00
sg12
S'HOU'
p2801
sg14
(dp2802
g98
V12.4
p2803
sg22
V23.7
p2804
sg101
V404.3
p2805
sg20
V0.5
p2806
sg104
V2778.3
p2807
sg106
V237.5
p2808
sg28
V147.6
p2809
sg30
V3.1
p2810
sg110
V14.9
p2811
sg18
V51.1
p2812
ssg32
(lp2813
sg34
I0
sg35
I00
sg36
(lp2814
g115
asg39
F1.6
sg40
F2.4
sbsS'Colin Kaepernick - SF'
p2815
g2
(g3
g4
Ntp2816
Rp2817
(dp2818
g8
S'Colin Kaepernick'
p2819
sg10
F2.0
sg11
I00
sg12
S'SF'
p2820
sg14
(dp2821
g98
V12.2
p2822
sg22
V95.3
p2823
sg101
V482.3
p2824
sg20
V2.4
p2825
sg104
V3463.5
p2826
sg106
V289.9
p2827
sg28
V252.1
p2828
sg30
V4.0
p2829
sg110
V18.7
p2830
sg18
V569.5
p2831
ssg32
(lp2832
sg34
I0
sg35
I00
sg36
(lp2833
g115
asg39
F1.6
sg40
F2.4
sbsS'Jarius Wright - MIN'
p2834
g2
(g3
g4
Ntp2835
Rp2836
(dp2837
g8
S'Jarius Wright'
p2838
sg10
F2.0
sg11
I00
sg12
S'MIN'
p2839
sg14
(dp2840
g16
V30.4
p2841
sg18
V13.5
p2842
sg20
V0.0
p2843
sg22
V2.0
p2844
sg24
V396.4
p2845
sg26
V2.3
p2846
sg28
V54.7
p2847
sg30
V0.0
p2848
ssg32
(lp2849
sg34
I0
sg35
I00
sg36
(lp2850
g75
asg39
F1.6
sg40
F2.4
sbsS'Jamize Olawale - OAK'
p2851
g2
(g3
g4
Ntp2852
Rp2853
(dp2854
g8
S'Jamize Olawale'
p2855
sg10
F2.0
sg11
I00
sg12
S'OAK'
p2856
sg14
(dp2857
g16
V2.3
p2858
sg18
V2.5
p2859
sg20
V0.0
p2860
sg22
V1.2
p2861
sg24
V16.7
p2862
sg26
V0.2
p2863
sg28
V3.4
p2864
sg30
V0.0
p2865
ssg32
(lp2866
sg34
I0
sg35
I00
sg36
(lp2867
g38
asg39
F1.6
sg40
F2.4
sbsS'Odell Beckham Jr. - NYG'
p2868
g2
(g3
g4
Ntp2869
Rp2870
(dp2871
g8
S'Odell Beckham Jr.'
p2872
sg10
F2.0
sg11
I00
sg12
S'NYG'
p2873
sg14
(dp2874
g16
V101.8
p2875
sg18
V28.1
p2876
sg20
V0.0
p2877
sg22
V4.1
p2878
sg24
V1394.0
p2879
sg26
V10.5
p2880
sg28
V202.3
p2881
sg30
V1.6
p2882
ssg32
(lp2883
sg34
I0
sg35
I00
sg36
(lp2884
g75
asg39
F1.6
sg40
F2.4
sbsS"Ka'Deem Carey - CHI"
p2885
g2
(g3
g4
Ntp2886
Rp2887
(dp2888
g8
S"Ka'Deem Carey"
p2889
sg10
F2.0
sg11
I00
sg12
S'CHI'
p2890
sg14
(dp2891
g16
V8.0
p2892
sg18
V121.1
p2893
sg20
V0.6
p2894
sg22
V27.0
p2895
sg24
V69.8
p2896
sg26
V0.2
p2897
sg28
V23.7
p2898
sg30
V0.1
p2899
ssg32
(lp2900
sg34
I0
sg35
I00
sg36
(lp2901
g38
asg39
F1.6
sg40
F2.4
sbsS'Davante Adams - GB'
p2902
g2
(g3
g4
Ntp2903
Rp2904
(dp2905
g8
S'Davante Adams'
p2906
sg10
F2.0
sg11
I00
sg12
S'GB'
p2907
sg14
(dp2908
g16
V71.6
p2909
sg18
V0.0
p2910
sg20
V0.0
p2911
sg22
V0.0
p2912
sg24
V918.5
p2913
sg26
V6.3
p2914
sg28
V129.2
p2915
sg30
V0.3
p2916
ssg32
(lp2917
sg34
I0
sg35
I00
sg36
(lp2918
g75
asg39
F1.6
sg40
F2.4
sbsS'Richie Brockel - CAR'
p2919
g2
(g3
g4
Ntp2920
Rp2921
(dp2922
g8
S'Richie Brockel'
p2923
sg10
F2.0
sg11
I00
sg12
S'CAR'
p2924
sg14
(dp2925
g16
V0.1
p2926
sg30
V0.1
p2927
sg24
V1.3
p2928
sg26
V0.0
p2929
sg28
V-0.1
p2930
ssg32
(lp2931
sg34
I0
sg35
I00
sg36
(lp2932
g90
asg39
F1.6
sg40
F2.4
sbsS'Cory Harkey - STL'
p2933
g2
(g3
g4
Ntp2934
Rp2935
(dp2936
g8
S'Cory Harkey'
p2937
sg10
F2.0
sg11
I00
sg12
S'STL'
p2938
sg14
(dp2939
g16
V3.2
p2940
sg30
V0.0
p2941
sg24
V25.1
p2942
sg26
V0.3
p2943
sg28
V4.2
p2944
ssg32
(lp2945
sg34
I0
sg35
I00
sg36
(lp2946
g90
asg39
F1.6
sg40
F2.4
sbsS'Antonio Gates - SD'
p2947
g2
(g3
g4
Ntp2948
Rp2949
(dp2950
g8
S'Antonio Gates'
p2951
sg10
F2.0
sg11
I00
sg12
S'SD'
p2952
sg14
(dp2953
g16
V44.7
p2954
sg30
V0.6
p2955
sg24
V522.4
p2956
sg26
V5.4
p2957
sg28
V83.7
p2958
ssg32
(lp2959
sg34
I0
sg35
I00
sg36
(lp2960
g90
asg39
F1.6
sg40
F2.4
sbsS'Andrew Luck - IND'
p2961
g2
(g3
g4
Ntp2962
Rp2963
(dp2964
g8
S'Andrew Luck'
p2965
sg10
F2.0
sg11
I00
sg12
S'IND'
p2966
sg14
(dp2967
g98
V16.0
p2968
sg22
V55.1
p2969
sg101
V645.5
p2970
sg20
V2.3
p2971
sg104
V4782.1
p2972
sg106
V396.5
p2973
sg28
V330.3
p2974
sg30
V4.0
p2975
sg110
V34.9
p2976
sg18
V256.3
p2977
ssg32
(lp2978
sg34
I0
sg35
I00
sg36
(lp2979
g115
asg39
F1.6
sg40
F2.4
sbsS'Jack Doyle - IND'
p2980
g2
(g3
g4
Ntp2981
Rp2982
(dp2983
g8
S'Jack Doyle'
p2984
sg10
F2.0
sg11
I00
sg12
S'IND'
p2985
sg14
(dp2986
g16
V3.8
p2987
sg30
V0.0
p2988
sg24
V23.6
p2989
sg26
V0.3
p2990
sg28
V4.1
p2991
ssg32
(lp2992
sg34
I0
sg35
I00
sg36
(lp2993
g90
asg39
F1.6
sg40
F2.4
sbsS'Frank Gore - IND'
p2994
g2
(g3
g4
Ntp2995
Rp2996
(dp2997
g8
S'Frank Gore'
p2998
sg10
F2.0
sg11
I00
sg12
S'IND'
p2999
sg14
(dp3000
g16
V32.0
p3001
sg18
V927.1
p3002
sg20
V6.3
p3003
sg22
V228.9
p3004
sg24
V265.5
p3005
sg26
V1.4
p3006
sg28
V160.4
p3007
sg30
V2.6
p3008
ssg32
(lp3009
sg34
I0
sg35
I00
sg36
(lp3010
g38
asg39
F1.6
sg40
F2.4
sbsS'Brandin Cooks - NO'
p3011
g2
(g3
g4
Ntp3012
Rp3013
(dp3014
g8
S'Brandin Cooks'
p3015
sg10
F2.0
sg11
I00
sg12
S'NO'
p3016
sg14
(dp3017
g16
V90.4
p3018
sg18
V68.7
p3019
sg20
V0.0
p3020
sg22
V9.2
p3021
sg24
V1088.3
p3022
sg26
V5.9
p3023
sg28
V150.1
p3024
sg30
V0.4
p3025
ssg32
(lp3026
sg34
I0
sg35
I00
sg36
(lp3027
g75
asg39
F1.6
sg40
F2.4
sbsS'Brenton - Bersin'
p3028
g2
(g3
g4
Ntp3029
Rp3030
(dp3031
g8
S'Brenton'
p3032
sg10
F2.0
sg11
I00
sg12
S'Bersin'
p3033
sg14
(dp3034
g16
V1.7
p3035
sg18
V0.0
p3036
sg20
V0.0
p3037
sg22
V0.0
p3038
sg24
V20.3
p3039
sg26
V0.1
p3040
sg28
V2.4
p3041
sg30
V0.1
p3042
ssg32
(lp3043
sg34
I0
sg35
I00
sg36
(lp3044
g75
asg39
F1.6
sg40
F2.4
sbsS'Kevin White - CHI'
p3045
g2
(g3
g4
Ntp3046
Rp3047
(dp3048
g8
S'Kevin White'
p3049
sg10
F2.0
sg11
I00
sg12
S'CHI'
p3050
sg14
(dp3051
g16
V21.0
p3052
sg18
V0.0
p3053
sg20
V0.0
p3054
sg22
V0.0
p3055
sg24
V287.0
p3056
sg26
V1.0
p3057
sg28
V34.7
p3058
sg30
V0.0
p3059
ssg32
(lp3060
sg34
I0
sg35
I00
sg36
(lp3061
g75
asg39
F1.6
sg40
F2.4
sbsS'Ameer Abdullah - DET'
p3062
g2
(g3
g4
Ntp3063
Rp3064
(dp3065
g8
S'Ameer Abdullah'
p3066
sg10
F2.0
sg11
I00
sg12
S'DET'
p3067
sg14
(dp3068
g16
V38.0
p3069
sg18
V588.8
p3070
sg20
V4.5
p3071
sg22
V139.1
p3072
sg24
V294.1
p3073
sg26
V1.5
p3074
sg28
V121.3
p3075
sg30
V1.5
p3076
ssg32
(lp3077
sg34
I0
sg35
I00
sg36
(lp3078
g38
asg39
F1.6
sg40
F2.4
sbsS'Steve Johnson - SD'
p3079
g2
(g3
g4
Ntp3080
Rp3081
(dp3082
g8
S'Steve Johnson'
p3083
sg10
F2.0
sg11
I00
sg12
S'SD'
p3084
sg14
(dp3085
g16
V47.0
p3086
sg18
V-0.1
p3087
sg20
V0.0
p3088
sg22
V0.0
p3089
sg24
V603.0
p3090
sg26
V4.0
p3091
sg28
V83.9
p3092
sg30
V0.3
p3093
ssg32
(lp3094
sg34
I0
sg35
I00
sg36
(lp3095
g75
asg39
F1.6
sg40
F2.4
sbsS'Marvin Jones - CIN'
p3096
g2
(g3
g4
Ntp3097
Rp3098
(dp3099
g8
S'Marvin Jones'
p3100
sg10
F2.0
sg11
I00
sg12
S'CIN'
p3101
sg14
(dp3102
g16
V39.2
p3103
sg18
V6.6
p3104
sg20
V0.0
p3105
sg22
V1.0
p3106
sg24
V526.4
p3107
sg26
V3.9
p3108
sg28
V76.0
p3109
sg30
V0.3
p3110
ssg32
(lp3111
sg34
I0
sg35
I00
sg36
(lp3112
g75
asg39
F1.6
sg40
F2.4
sbsS'Devin Smith - NYJ'
p3113
g2
(g3
g4
Ntp3114
Rp3115
(dp3116
g8
S'Devin Smith'
p3117
sg10
F2.0
sg11
I00
sg12
S'NYJ'
p3118
sg14
(dp3119
g16
V24.1
p3120
sg18
V3.3
p3121
sg20
V0.0
p3122
sg22
V0.3
p3123
sg24
V333.6
p3124
sg26
V2.1
p3125
sg28
V45.3
p3126
sg30
V0.5
p3127
ssg32
(lp3128
sg34
I0
sg35
I00
sg36
(lp3129
g75
asg39
F1.6
sg40
F2.4
sbsS'LeSean McCoy - BUF'
p3130
g2
(g3
g4
Ntp3131
Rp3132
(dp3133
g8
S'LeSean McCoy'
p3134
sg10
F2.0
sg11
I00
sg12
S'BUF'
p3135
sg14
(dp3136
g16
V35.0
p3137
sg18
V1207.9
p3138
sg20
V6.0
p3139
sg22
V277.8
p3140
sg24
V239.4
p3141
sg26
V0.9
p3142
sg28
V181.2
p3143
sg30
V2.2
p3144
ssg32
(lp3145
sg34
I0
sg35
I00
sg36
(lp3146
g38
asg39
F1.6
sg40
F2.4
sbsS'Teddy Bridgewater - MIN'
p3147
g2
(g3
g4
Ntp3148
Rp3149
(dp3150
g8
S'Teddy Bridgewater'
p3151
sg10
F2.0
sg11
I00
sg12
S'MIN'
p3152
sg14
(dp3153
g98
V15.4
p3154
sg22
V63.1
p3155
sg101
V516.7
p3156
sg20
V1.6
p3157
sg104
V3683.5
p3158
sg106
V319.4
p3159
sg28
V236.6
p3160
sg30
V2.6
p3161
sg110
V22.3
p3162
sg18
V262.4
p3163
ssg32
(lp3164
sg34
I0
sg35
I00
sg36
(lp3165
g115
asg39
F1.6
sg40
F2.4
sbsS'Pierre - Thomas'
p3166
g2
(g3
g4
Ntp3167
Rp3168
(dp3169
g8
S'Pierre'
p3170
sg10
F2.0
sg11
I00
sg12
S'Thomas'
p3171
sg14
(dp3172
g16
V0.0
p3173
sg18
V0.0
p3174
sg20
V0.0
p3175
sg22
V0.0
p3176
sg24
V0.0
p3177
sg26
V0.0
p3178
sg28
V0.0
p3179
sg30
V0.0
p3180
ssg32
(lp3181
sg34
I0
sg35
I00
sg36
(lp3182
g38
asg39
F1.6
sg40
F2.4
sbsS'Larry Fitzgerald - ARI'
p3183
g2
(g3
g4
Ntp3184
Rp3185
(dp3186
g8
S'Larry Fitzgerald'
p3187
sg10
F2.0
sg11
I00
sg12
S'ARI'
p3188
sg14
(dp3189
g16
V70.7
p3190
sg18
V0.5
p3191
sg20
V0.0
p3192
sg22
V0.1
p3193
sg24
V864.3
p3194
sg26
V4.5
p3195
sg28
V110.1
p3196
sg30
V1.7
p3197
ssg32
(lp3198
sg34
I0
sg35
I00
sg36
(lp3199
g75
asg39
F1.6
sg40
F2.4
sbsS'Jason Avant - KC'
p3200
g2
(g3
g4
Ntp3201
Rp3202
(dp3203
g8
S'Jason Avant'
p3204
sg10
F2.0
sg11
I00
sg12
S'KC'
p3205
sg14
(dp3206
g16
V25.0
p3207
sg18
V0.5
p3208
sg20
V0.0
p3209
sg22
V0.3
p3210
sg24
V258.6
p3211
sg26
V0.9
p3212
sg28
V30.8
p3213
sg30
V0.3
p3214
ssg32
(lp3215
sg34
I0
sg35
I00
sg36
(lp3216
g75
asg39
F1.6
sg40
F2.4
sbsS'Matt Barkley - ARI'
p3217
g2
(g3
g4
Ntp3218
Rp3219
(dp3220
g8
S'Matt Barkley'
p3221
sg10
F2.0
sg11
I00
sg12
S'ARI'
p3222
sg14
(dp3223
g98
V0.0
p3224
sg22
V0.0
p3225
sg101
V0.0
p3226
sg20
V0.0
p3227
sg104
V0.0
p3228
sg106
V0.0
p3229
sg28
V0.0
p3230
sg30
V0.0
p3231
sg110
V0.0
p3232
sg18
V0.0
p3233
ssg32
(lp3234
sg34
I0
sg35
I00
sg36
(lp3235
g115
asg39
F1.6
sg40
F2.4
sbsS'Josh - Harris'
p3236
g2
(g3
g4
Ntp3237
Rp3238
(dp3239
g8
S'Josh'
p3240
sg10
F2.0
sg11
I00
sg12
S'Harris'
p3241
sg14
(dp3242
g16
V1.2
p3243
sg18
V78.8
p3244
sg20
V0.4
p3245
sg22
V19.9
p3246
sg24
V8.6
p3247
sg26
V0.0
p3248
sg28
V10.9
p3249
sg30
V0.2
p3250
ssg32
(lp3251
sg34
I0
sg35
I00
sg36
(lp3252
g38
asg39
F1.6
sg40
F2.4
sbsS'Marcedes Lewis - JAC'
p3253
g2
(g3
g4
Ntp3254
Rp3255
(dp3256
g8
S'Marcedes Lewis'
p3257
sg10
F2.0
sg11
I00
sg12
S'JAC'
p3258
sg14
(dp3259
g16
V22.7
p3260
sg30
V1.0
p3261
sg24
V261.0
p3262
sg26
V2.2
p3263
sg28
V37.3
p3264
ssg32
(lp3265
sg34
I0
sg35
I00
sg36
(lp3266
g90
asg39
F1.6
sg40
F2.4
sbsS'Saalim - Hakim'
p3267
g2
(g3
g4
Ntp3268
Rp3269
(dp3270
g8
S'Saalim'
p3271
sg10
F2.0
sg11
I00
sg12
S'Hakim'
p3272
sg14
(dp3273
g16
V6.0
p3274
sg18
V0.0
p3275
sg20
V0.0
p3276
sg22
V0.0
p3277
sg24
V81.7
p3278
sg26
V0.3
p3279
sg28
V9.7
p3280
sg30
V0.0
p3281
ssg32
(lp3282
sg34
I0
sg35
I00
sg36
(lp3283
g75
asg39
F1.6
sg40
F2.4
sbsS'Markus Wheaton - PIT'
p3284
g2
(g3
g4
Ntp3285
Rp3286
(dp3287
g8
S'Markus Wheaton'
p3288
sg10
F2.0
sg11
I00
sg12
S'PIT'
p3289
sg14
(dp3290
g16
V56.1
p3291
sg18
V15.9
p3292
sg20
V0.0
p3293
sg22
V2.7
p3294
sg24
V700.1
p3295
sg26
V3.2
p3296
sg28
V90.0
p3297
sg30
V0.4
p3298
ssg32
(lp3299
sg34
I0
sg35
I00
sg36
(lp3300
g75
asg39
F1.6
sg40
F2.4
sbsS'Jonathan Grimes - HOU'
p3301
g2
(g3
g4
Ntp3302
Rp3303
(dp3304
g8
S'Jonathan Grimes'
p3305
sg10
F2.0
sg11
I00
sg12
S'HOU'
p3306
sg14
(dp3307
g16
V9.3
p3308
sg18
V122.1
p3309
sg20
V0.6
p3310
sg22
V30.4
p3311
sg24
V82.2
p3312
sg26
V0.5
p3313
sg28
V25.7
p3314
sg30
V0.4
p3315
ssg32
(lp3316
sg34
I0
sg35
I00
sg36
(lp3317
g38
asg39
F1.6
sg40
F2.4
sbsS'Leonard Hankerson - ATL'
p3318
g2
(g3
g4
Ntp3319
Rp3320
(dp3321
g8
S'Leonard Hankerson'
p3322
sg10
F2.0
sg11
I00
sg12
S'ATL'
p3323
sg14
(dp3324
g16
V29.9
p3325
sg18
V0.0
p3326
sg20
V0.0
p3327
sg22
V0.0
p3328
sg24
V368.3
p3329
sg26
V2.9
p3330
sg28
V53.7
p3331
sg30
V0.3
p3332
ssg32
(lp3333
sg34
I0
sg35
I00
sg36
(lp3334
g75
asg39
F1.6
sg40
F2.4
sbsS'Miles Austin - PHI'
p3335
g2
(g3
g4
Ntp3336
Rp3337
(dp3338
g8
S'Miles Austin'
p3339
sg10
F2.0
sg11
I00
sg12
S'PHI'
p3340
sg14
(dp3341
g16
V7.1
p3342
sg18
V0.0
p3343
sg20
V0.0
p3344
sg22
V0.0
p3345
sg24
V90.7
p3346
sg26
V0.7
p3347
sg28
V13.1
p3348
sg30
V0.0
p3349
ssg32
(lp3350
sg34
I0
sg35
I00
sg36
(lp3351
g75
asg39
F1.6
sg40
F2.4
sbsS'Darren McFadden - DAL'
p3352
g2
(g3
g4
Ntp3353
Rp3354
(dp3355
g8
S'Darren McFadden'
p3356
sg10
F2.0
sg11
I00
sg12
S'DAL'
p3357
sg14
(dp3358
g16
V19.3
p3359
sg18
V544.9
p3360
sg20
V4.3
p3361
sg22
V133.2
p3362
sg24
V140.0
p3363
sg26
V0.8
p3364
sg28
V96.4
p3365
sg30
V1.5
p3366
ssg32
(lp3367
sg34
I0
sg35
I00
sg36
(lp3368
g38
asg39
F1.6
sg40
F2.4
sbsS'Cordarrelle Patterson - MIN'
p3369
g2
(g3
g4
Ntp3370
Rp3371
(dp3372
g8
S'Cordarrelle Patterson'
p3373
sg10
F2.0
sg11
I00
sg12
S'MIN'
p3374
sg14
(dp3375
g16
V26.4
p3376
sg18
V67.9
p3377
sg20
V0.3
p3378
sg22
V8.3
p3379
sg24
V319.8
p3380
sg26
V1.5
p3381
sg28
V47.2
p3382
sg30
V1.3
p3383
ssg32
(lp3384
sg34
I0
sg35
I00
sg36
(lp3385
g75
asg39
F1.6
sg40
F2.4
sbsS'Chris Johnson - ARI'
p3386
g2
(g3
g4
Ntp3387
Rp3388
(dp3389
g8
S'Chris Johnson'
p3390
sg10
F2.0
sg11
I00
sg12
S'ARI'
p3391
sg14
(dp3392
g16
V14.1
p3393
sg18
V251.8
p3394
sg20
V1.4
p3395
sg22
V62.4
p3396
sg24
V105.7
p3397
sg26
V0.7
p3398
sg28
V45.5
p3399
sg30
V1.5
p3400
ssg32
(lp3401
sg34
I0
sg35
I00
sg36
(lp3402
g38
asg39
F1.6
sg40
F2.4
sbsS'Justin Hardy - ATL'
p3403
g2
(g3
g4
Ntp3404
Rp3405
(dp3406
g8
S'Justin Hardy'
p3407
sg10
F2.0
sg11
I00
sg12
S'ATL'
p3408
sg14
(dp3409
g16
V22.7
p3410
sg18
V0.0
p3411
sg20
V0.0
p3412
sg22
V0.0
p3413
sg24
V289.9
p3414
sg26
V1.6
p3415
sg28
V38.5
p3416
sg30
V0.0
p3417
ssg32
(lp3418
sg34
I0
sg35
I00
sg36
(lp3419
g75
asg39
F1.6
sg40
F2.4
sbsS'Eddie Royal - CHI'
p3420
g2
(g3
g4
Ntp3421
Rp3422
(dp3423
g8
S'Eddie Royal'
p3424
sg10
F2.0
sg11
I00
sg12
S'CHI'
p3425
sg14
(dp3426
g16
V57.3
p3427
sg18
V5.4
p3428
sg20
V0.0
p3429
sg22
V0.7
p3430
sg24
V687.3
p3431
sg26
V4.8
p3432
sg28
V93.3
p3433
sg30
V2.5
p3434
ssg32
(lp3435
sg34
I0
sg35
I00
sg36
(lp3436
g75
asg39
F1.6
sg40
F2.4
sbsS'Tre Mason - STL'
p3437
g2
(g3
g4
Ntp3438
Rp3439
(dp3440
g8
S'Tre Mason'
p3441
sg10
F2.0
sg11
I00
sg12
S'STL'
p3442
sg14
(dp3443
g16
V19.7
p3444
sg18
V604.3
p3445
sg20
V2.9
p3446
sg22
V139.9
p3447
sg24
V164.9
p3448
sg26
V0.6
p3449
sg28
V92.8
p3450
sg30
V2.3
p3451
ssg32
(lp3452
sg34
I0
sg35
I00
sg36
(lp3453
g38
asg39
F1.6
sg40
F2.4
sbsS'Cam Newton - CAR'
p3454
g2
(g3
g4
Ntp3455
Rp3456
(dp3457
g8
S'Cam Newton'
p3458
sg10
F2.0
sg11
I00
sg12
S'CAR'
p3459
sg14
(dp3460
g98
V14.7
p3461
sg22
V105.2
p3462
sg101
V504.1
p3463
sg20
V4.7
p3464
sg104
V3618.4
p3465
sg106
V302.4
p3466
sg28
V278.7
p3467
sg30
V4.4
p3468
sg110
V21.8
p3469
sg18
V568.4
p3470
ssg32
(lp3471
sg34
I0
sg35
I00
sg36
(lp3472
g115
asg39
F1.6
sg40
F2.4
sbsS'Tarvaris Jackson - SEA'
p3473
g2
(g3
g4
Ntp3474
Rp3475
(dp3476
g8
S'Tarvaris Jackson'
p3477
sg10
F2.0
sg11
I00
sg12
S'SEA'
p3478
sg14
(dp3479
g98
V0.0
p3480
sg22
V0.4
p3481
sg101
V1.6
p3482
sg20
V0.1
p3483
sg104
V13.5
p3484
sg106
V0.8
p3485
sg28
V1.0
p3486
sg30
V0.0
p3487
sg110
V0.0
p3488
sg18
V0.4
p3489
ssg32
(lp3490
sg34
I0
sg35
I00
sg36
(lp3491
g115
asg39
F1.6
sg40
F2.4
sbsS'Mike - Brown'
p3492
g2
(g3
g4
Ntp3493
Rp3494
(dp3495
g8
S'Mike'
p3496
sg10
F2.0
sg11
I00
sg12
S'Brown'
p3497
sg14
(dp3498
g16
V3.1
p3499
sg18
V0.0
p3500
sg20
V0.0
p3501
sg22
V0.0
p3502
sg24
V49.0
p3503
sg26
V0.2
p3504
sg28
V5.7
p3505
sg30
V0.2
p3506
ssg32
(lp3507
sg34
I0
sg35
I00
sg36
(lp3508
g75
asg39
F1.6
sg40
F2.4
sbsS'Brian - Leonhardt'
p3509
g2
(g3
g4
Ntp3510
Rp3511
(dp3512
g8
S'Brian'
p3513
sg10
F2.0
sg11
I00
sg12
S'Leonhardt'
p3514
sg14
(dp3515
g16
V4.5
p3516
sg30
V0.0
p3517
sg24
V37.6
p3518
sg26
V0.3
p3519
sg28
V5.6
p3520
ssg32
(lp3521
sg34
I0
sg35
I00
sg36
(lp3522
g90
asg39
F1.6
sg40
F2.4
sbsS'Isaiah Crowell - CLE'
p3523
g2
(g3
g4
Ntp3524
Rp3525
(dp3526
g8
S'Isaiah Crowell'
p3527
sg10
F2.0
sg11
I00
sg12
S'CLE'
p3528
sg14
(dp3529
g16
V19.9
p3530
sg18
V797.1
p3531
sg20
V5.5
p3532
sg22
V192.3
p3533
sg24
V154.9
p3534
sg26
V0.5
p3535
sg28
V126.0
p3536
sg30
V2.8
p3537
ssg32
(lp3538
sg34
I0
sg35
I00
sg36
(lp3539
g38
asg39
F1.6
sg40
F2.4
sbsS'Dante - Rosario'
p3540
g2
(g3
g4
Ntp3541
Rp3542
(dp3543
g8
S'Dante'
p3544
sg10
F2.0
sg11
I00
sg12
S'Rosario'
p3545
sg14
(dp3546
g16
V18.5
p3547
sg30
V1.3
p3548
sg24
V188.5
p3549
sg26
V1.2
p3550
sg28
V23.2
p3551
ssg32
(lp3552
sg34
I0
sg35
I00
sg36
(lp3553
g90
asg39
F1.6
sg40
F2.4
sbsS'Jonathan Stewart - CAR'
p3554
g2
(g3
g4
Ntp3555
Rp3556
(dp3557
g8
S'Jonathan Stewart'
p3558
sg10
F2.0
sg11
I00
sg12
S'CAR'
p3559
sg14
(dp3560
g16
V29.7
p3561
sg18
V909.9
p3562
sg20
V5.1
p3563
sg22
V204.8
p3564
sg24
V221.3
p3565
sg26
V1.0
p3566
sg28
V146.4
p3567
sg30
V1.5
p3568
ssg32
(lp3569
sg34
I0
sg35
I00
sg36
(lp3570
g38
asg39
F1.6
sg40
F2.4
sbsS'Aaron Dobson - NE'
p3571
g2
(g3
g4
Ntp3572
Rp3573
(dp3574
g8
S'Aaron Dobson'
p3575
sg10
F2.0
sg11
I00
sg12
S'NE'
p3576
sg14
(dp3577
g16
V4.0
p3578
sg18
V0.0
p3579
sg20
V0.0
p3580
sg22
V0.0
p3581
sg24
V50.3
p3582
sg26
V0.2
p3583
sg28
V6.3
p3584
sg30
V0.0
p3585
ssg32
(lp3586
sg34
I0
sg35
I00
sg36
(lp3587
g75
asg39
F1.6
sg40
F2.4
sbsS'Rex Burkhead - CIN'
p3588
g2
(g3
g4
Ntp3589
Rp3590
(dp3591
g8
S'Rex Burkhead'
p3592
sg10
F2.0
sg11
I00
sg12
S'CIN'
p3593
sg14
(dp3594
g16
V3.1
p3595
sg18
V19.0
p3596
sg20
V0.2
p3597
sg22
V4.8
p3598
sg24
V24.9
p3599
sg26
V0.0
p3600
sg28
V5.6
p3601
sg30
V0.1
p3602
ssg32
(lp3603
sg34
I0
sg35
I00
sg36
(lp3604
g38
asg39
F1.6
sg40
F2.4
sbsS'Bryce Brown - BUF'
p3605
g2
(g3
g4
Ntp3606
Rp3607
(dp3608
g8
S'Bryce Brown'
p3609
sg10
F2.0
sg11
I00
sg12
S'BUF'
p3610
sg14
(dp3611
g16
V3.1
p3612
sg18
V36.5
p3613
sg20
V0.1
p3614
sg22
V9.9
p3615
sg24
V29.4
p3616
sg26
V0.0
p3617
sg28
V6.8
p3618
sg30
V0.2
p3619
ssg32
(lp3620
sg34
I0
sg35
I00
sg36
(lp3621
g38
asg39
F1.6
sg40
F2.4
sbsS'Jonas - Gray'
p3622
g2
(g3
g4
Ntp3623
Rp3624
(dp3625
g8
S'Jonas'
p3626
sg10
F2.0
sg11
I00
sg12
S'Gray'
p3627
sg14
(dp3628
g16
V4.5
p3629
sg18
V366.5
p3630
sg20
V4.0
p3631
sg22
V84.5
p3632
sg24
V35.5
p3633
sg26
V0.0
p3634
sg28
V64.2
p3635
sg30
V0.0
p3636
ssg32
(lp3637
sg34
I0
sg35
I00
sg36
(lp3638
g38
asg39
F1.6
sg40
F2.4
sbsS'Jay Prosch - HOU'
p3639
g2
(g3
g4
Ntp3640
Rp3641
(dp3642
g8
S'Jay Prosch'
p3643
sg10
F2.0
sg11
I00
sg12
S'HOU'
p3644
sg14
(dp3645
g16
V7.2
p3646
sg18
V55.2
p3647
sg20
V0.3
p3648
sg22
V15.0
p3649
sg24
V74.1
p3650
sg26
V0.2
p3651
sg28
V16.0
p3652
sg30
V0.1
p3653
ssg32
(lp3654
sg34
I0
sg35
I00
sg36
(lp3655
g38
asg39
F1.6
sg40
F2.4
sbsS'Peyton Manning - DEN'
p3656
g2
(g3
g4
Ntp3657
Rp3658
(dp3659
g8
S'Peyton Manning'
p3660
sg10
F2.0
sg11
I00
sg12
S'DEN'
p3661
sg14
(dp3662
g98
V13.1
p3663
sg22
V27.4
p3664
sg101
V596.9
p3665
sg20
V0.5
p3666
sg104
V4662.8
p3667
sg106
V395.4
p3668
sg28
V298.2
p3669
sg30
V3.2
p3670
sg110
V35.1
p3671
sg18
V13.8
p3672
ssg32
(lp3673
sg34
I0
sg35
I00
sg36
(lp3674
g115
asg39
F1.6
sg40
F2.4
sbsS'C.J. Fiedorowicz - HOU'
p3675
g2
(g3
g4
Ntp3676
Rp3677
(dp3678
g8
S'C.J. Fiedorowicz'
p3679
sg10
F2.0
sg11
I00
sg12
S'HOU'
p3680
sg14
(dp3681
g16
V16.1
p3682
sg30
V0.4
p3683
sg24
V169.3
p3684
sg26
V1.4
p3685
sg28
V24.5
p3686
ssg32
(lp3687
sg34
I0
sg35
I00
sg36
(lp3688
g90
asg39
F1.6
sg40
F2.4
sbsS'Corey Fuller - DET'
p3689
g2
(g3
g4
Ntp3690
Rp3691
(dp3692
g8
S'Corey Fuller'
p3693
sg10
F2.0
sg11
I00
sg12
S'DET'
p3694
sg14
(dp3695
g16
V17.8
p3696
sg18
V0.0
p3697
sg20
V0.0
p3698
sg22
V0.0
p3699
sg24
V253.8
p3700
sg26
V1.2
p3701
sg28
V27.7
p3702
sg30
V2.5
p3703
ssg32
(lp3704
sg34
I0
sg35
I00
sg36
(lp3705
g75
asg39
F1.6
sg40
F2.4
sbsS'Jerome Felton - BUF'
p3706
g2
(g3
g4
Ntp3707
Rp3708
(dp3709
g8
S'Jerome Felton'
p3710
sg10
F2.0
sg11
I00
sg12
S'BUF'
p3711
sg14
(dp3712
g16
V8.0
p3713
sg18
V86.6
p3714
sg20
V0.5
p3715
sg22
V18.4
p3716
sg24
V51.5
p3717
sg26
V0.2
p3718
sg28
V18.1
p3719
sg30
V0.0
p3720
ssg32
(lp3721
sg34
I0
sg35
I00
sg36
(lp3722
g38
asg39
F1.6
sg40
F2.4
sbsS'Sammy Watkins - BUF'
p3723
g2
(g3
g4
Ntp3724
Rp3725
(dp3726
g8
S'Sammy Watkins'
p3727
sg10
F2.0
sg11
I00
sg12
S'BUF'
p3728
sg14
(dp3729
g16
V65.1
p3730
sg18
V11.3
p3731
sg20
V0.0
p3732
sg22
V2.1
p3733
sg24
V960.8
p3734
sg26
V6.2
p3735
sg28
V131.8
p3736
sg30
V1.4
p3737
ssg32
(lp3738
sg34
I0
sg35
I00
sg36
(lp3739
g75
asg39
F1.6
sg40
F2.4
sbsS'Marcus Easley - BUF'
p3740
g2
(g3
g4
Ntp3741
Rp3742
(dp3743
g8
S'Marcus Easley'
p3744
sg10
F2.0
sg11
I00
sg12
S'BUF'
p3745
sg14
(dp3746
g16
V2.6
p3747
sg18
V0.0
p3748
sg20
V0.0
p3749
sg22
V0.0
p3750
sg24
V30.1
p3751
sg26
V0.2
p3752
sg28
V4.0
p3753
sg30
V0.0
p3754
ssg32
(lp3755
sg34
I0
sg35
I00
sg36
(lp3756
g75
asg39
F1.6
sg40
F2.4
sbsS'Scott Tolzien - GB'
p3757
g2
(g3
g4
Ntp3758
Rp3759
(dp3760
g8
S'Scott Tolzien'
p3761
sg10
F2.0
sg11
I00
sg12
S'GB'
p3762
sg14
(dp3763
g98
V0.4
p3764
sg22
V1.3
p3765
sg101
V13.6
p3766
sg20
V0.1
p3767
sg104
V95.7
p3768
sg106
V8.6
p3769
sg28
V5.4
p3770
sg30
V0.1
p3771
sg110
V0.4
p3772
sg18
V6.6
p3773
ssg32
(lp3774
sg34
I0
sg35
I00
sg36
(lp3775
g115
asg39
F1.6
sg40
F2.4
sbsS'Vernon Davis - SF'
p3776
g2
(g3
g4
Ntp3777
Rp3778
(dp3779
g8
S'Vernon Davis'
p3780
sg10
F2.0
sg11
I00
sg12
S'SF'
p3781
sg14
(dp3782
g16
V41.9
p3783
sg30
V0.4
p3784
sg24
V512.1
p3785
sg26
V4.2
p3786
sg28
V75.7
p3787
ssg32
(lp3788
sg34
I0
sg35
I00
sg36
(lp3789
g90
asg39
F1.6
sg40
F2.4
sbsS'Rueben Randle - NYG'
p3790
g2
(g3
g4
Ntp3791
Rp3792
(dp3793
g8
S'Rueben Randle'
p3794
sg10
F2.0
sg11
I00
sg12
S'NYG'
p3795
sg14
(dp3796
g16
V52.2
p3797
sg18
V0.0
p3798
sg20
V0.0
p3799
sg22
V0.0
p3800
sg24
V760.9
p3801
sg26
V3.9
p3802
sg28
V98.6
p3803
sg30
V0.4
p3804
ssg32
(lp3805
sg34
I0
sg35
I00
sg36
(lp3806
g75
asg39
F1.6
sg40
F2.4
sbsS'Alfred Blue - HOU'
p3807
g2
(g3
g4
Ntp3808
Rp3809
(dp3810
g8
S'Alfred Blue'
p3811
sg10
F2.0
sg11
I00
sg12
S'HOU'
p3812
sg14
(dp3813
g16
V16.7
p3814
sg18
V581.5
p3815
sg20
V2.7
p3816
sg22
V147.5
p3817
sg24
V137.2
p3818
sg26
V0.6
p3819
sg28
V89.2
p3820
sg30
V1.3
p3821
ssg32
(lp3822
sg34
I0
sg35
I00
sg36
(lp3823
g38
asg39
F1.6
sg40
F2.4
sbsS'Dennis Pitta - BAL'
p3824
g2
(g3
g4
Ntp3825
Rp3826
(dp3827
g8
S'Dennis Pitta'
p3828
sg10
F2.0
sg11
I00
sg12
S'BAL'
p3829
sg14
(dp3830
g16
V11.5
p3831
sg30
V0.0
p3832
sg24
V134.5
p3833
sg26
V1.0
p3834
sg28
V19.5
p3835
ssg32
(lp3836
sg34
I0
sg35
I00
sg36
(lp3837
g90
asg39
F1.6
sg40
F2.4
sbsS'Mike James - TB'
p3838
g2
(g3
g4
Ntp3839
Rp3840
(dp3841
g8
S'Mike James'
p3842
sg10
F2.0
sg11
I00
sg12
S'TB'
p3843
sg14
(dp3844
g16
V1.0
p3845
sg18
V34.6
p3846
sg20
V0.3
p3847
sg22
V9.2
p3848
sg24
V3.4
p3849
sg26
V0.0
p3850
sg28
V5.2
p3851
sg30
V0.1
p3852
ssg32
(lp3853
sg34
I0
sg35
I00
sg36
(lp3854
g38
asg39
F1.6
sg40
F2.4
sbsS'Larry Donnell - NYG'
p3855
g2
(g3
g4
Ntp3856
Rp3857
(dp3858
g8
S'Larry Donnell'
p3859
sg10
F2.0
sg11
I00
sg12
S'NYG'
p3860
sg14
(dp3861
g16
V50.3
p3862
sg30
V3.5
p3863
sg24
V520.7
p3864
sg26
V4.1
p3865
sg28
V69.5
p3866
ssg32
(lp3867
sg34
I0
sg35
I00
sg36
(lp3868
g90
asg39
F1.6
sg40
F2.4
sbsS'Benny Cunningham - STL'
p3869
g2
(g3
g4
Ntp3870
Rp3871
(dp3872
g8
S'Benny Cunningham'
p3873
sg10
F2.0
sg11
I00
sg12
S'STL'
p3874
sg14
(dp3875
g16
V29.3
p3876
sg18
V201.6
p3877
sg20
V1.2
p3878
sg22
V51.3
p3879
sg24
V234.2
p3880
sg26
V0.9
p3881
sg28
V54.9
p3882
sg30
V0.7
p3883
ssg32
(lp3884
sg34
I0
sg35
I00
sg36
(lp3885
g38
asg39
F1.6
sg40
F2.4
sbsS'Josh Bellamy - CHI'
p3886
g2
(g3
g4
Ntp3887
Rp3888
(dp3889
g8
S'Josh Bellamy'
p3890
sg10
F2.0
sg11
I00
sg12
S'CHI'
p3891
sg14
(dp3892
g16
V1.3
p3893
sg18
V0.0
p3894
sg20
V0.0
p3895
sg22
V0.0
p3896
sg24
V16.2
p3897
sg26
V0.1
p3898
sg28
V2.2
p3899
sg30
V0.0
p3900
ssg32
(lp3901
sg34
I0
sg35
I00
sg36
(lp3902
g75
asg39
F1.6
sg40
F2.4
sbsS'Jay Cutler - CHI'
p3903
g2
(g3
g4
Ntp3904
Rp3905
(dp3906
g8
S'Jay Cutler'
p3907
sg10
F2.0
sg11
I00
sg12
S'CHI'
p3908
sg14
(dp3909
g98
V16.9
p3910
sg22
V41.1
p3911
sg101
V573.7
p3912
sg20
V1.5
p3913
sg104
V3971.5
p3914
sg106
V358.2
p3915
sg28
V248.5
p3916
sg30
V3.3
p3917
sg110
V25.4
p3918
sg18
V195.2
p3919
ssg32
(lp3920
sg34
I0
sg35
I00
sg36
(lp3921
g115
asg39
F1.6
sg40
F2.4
sbsS'Chase Daniel - KC'
p3922
g2
(g3
g4
Ntp3923
Rp3924
(dp3925
g8
S'Chase Daniel'
p3926
sg10
F2.0
sg11
I00
sg12
S'KC'
p3927
sg14
(dp3928
g98
V0.2
p3929
sg22
V2.0
p3930
sg101
V18.5
p3931
sg20
V0.0
p3932
sg104
V119.4
p3933
sg106
V10.7
p3934
sg28
V8.1
p3935
sg30
V0.1
p3936
sg110
V0.7
p3937
sg18
V9.8
p3938
ssg32
(lp3939
sg34
I0
sg35
I00
sg36
(lp3940
g115
asg39
F1.6
sg40
F2.4
sbsS'A.J. Green - CIN'
p3941
g2
(g3
g4
Ntp3942
Rp3943
(dp3944
g8
S'A.J. Green'
p3945
sg10
F2.0
sg11
I00
sg12
S'CIN'
p3946
sg14
(dp3947
g16
V95.9
p3948
sg18
V12.6
p3949
sg20
V0.0
p3950
sg22
V2.0
p3951
sg24
V1310.7
p3952
sg26
V8.4
p3953
sg28
V177.6
p3954
sg30
V2.4
p3955
ssg32
(lp3956
sg34
I0
sg35
I00
sg36
(lp3957
g75
asg39
F1.6
sg40
F2.4
sbsS'Lee Smith - OAK'
p3958
g2
(g3
g4
Ntp3959
Rp3960
(dp3961
g8
S'Lee Smith'
p3962
sg10
F2.0
sg11
I00
sg12
S'OAK'
p3963
sg14
(dp3964
g16
V15.5
p3965
sg30
V0.3
p3966
sg24
V131.6
p3967
sg26
V1.1
p3968
sg28
V18.9
p3969
ssg32
(lp3970
sg34
I0
sg35
I00
sg36
(lp3971
g90
asg39
F1.6
sg40
F2.4
sbsS'Matt Jones - WAS'
p3972
g2
(g3
g4
Ntp3973
Rp3974
(dp3975
g8
S'Matt Jones'
p3976
sg10
F2.0
sg11
I00
sg12
S'WAS'
p3977
sg14
(dp3978
g16
V26.8
p3979
sg18
V342.4
p3980
sg20
V2.8
p3981
sg22
V81.7
p3982
sg24
V217.2
p3983
sg26
V0.9
p3984
sg28
V74.0
p3985
sg30
V2.1
p3986
ssg32
(lp3987
sg34
I0
sg35
I00
sg36
(lp3988
g38
asg39
F1.6
sg40
F2.4
sbsS'Jordan Cameron - MIA'
p3989
g2
(g3
g4
Ntp3990
Rp3991
(dp3992
g8
S'Jordan Cameron'
p3993
sg10
F2.0
sg11
I00
sg12
S'MIA'
p3994
sg14
(dp3995
g16
V52.7
p3996
sg30
V0.3
p3997
sg24
V630.3
p3998
sg26
V4.4
p3999
sg28
V89.1
p4000
ssg32
(lp4001
sg34
I0
sg35
I00
sg36
(lp4002
g90
asg39
F1.6
sg40
F2.4
sbsS'Blaine Gabbert - SF'
p4003
g2
(g3
g4
Ntp4004
Rp4005
(dp4006
g8
S'Blaine Gabbert'
p4007
sg10
F2.0
sg11
I00
sg12
S'SF'
p4008
sg14
(dp4009
g98
V0.4
p4010
sg22
V2.4
p4011
sg101
V20.8
p4012
sg20
V0.0
p4013
sg104
V138.9
p4014
sg106
V12.3
p4015
sg28
V6.7
p4016
sg30
V0.1
p4017
sg110
V0.3
p4018
sg18
V8.7
p4019
ssg32
(lp4020
sg34
I0
sg35
I00
sg36
(lp4021
g115
asg39
F1.6
sg40
F2.4
sbsS'Ray - Agnew'
p4022
g2
(g3
g4
Ntp4023
Rp4024
(dp4025
g8
S'Ray'
p4026
sg10
F2.0
sg11
I00
sg12
S'Agnew'
p4027
sg14
(dp4028
g16
V0.6
p4029
sg18
V3.0
p4030
sg20
V0.0
p4031
sg22
V0.7
p4032
sg24
V5.0
p4033
sg26
V0.0
p4034
sg28
V0.8
p4035
sg30
V0.0
p4036
ssg32
(lp4037
sg34
I0
sg35
I00
sg36
(lp4038
g38
asg39
F1.6
sg40
F2.4
sbsS'Anthony Dixon - BUF'
p4039
g2
(g3
g4
Ntp4040
Rp4041
(dp4042
g8
S'Anthony Dixon'
p4043
sg10
F2.0
sg11
I00
sg12
S'BUF'
p4044
sg14
(dp4045
g16
V3.5
p4046
sg18
V95.1
p4047
sg20
V1.0
p4048
sg22
V24.5
p4049
sg24
V27.4
p4050
sg26
V0.1
p4051
sg28
V18.7
p4052
sg30
V0.0
p4053
ssg32
(lp4054
sg34
I0
sg35
I00
sg36
(lp4055
g38
asg39
F1.6
sg40
F2.4
sbsS'Johnny Manziel - CLE'
p4056
g2
(g3
g4
Ntp4057
Rp4058
(dp4059
g8
S'Johnny Manziel'
p4060
sg10
F2.0
sg11
I00
sg12
S'CLE'
p4061
sg14
(dp4062
g98
V3.4
p4063
sg22
V11.9
p4064
sg101
V97.0
p4065
sg20
V0.5
p4066
sg104
V636.6
p4067
sg106
V55.5
p4068
sg28
V37.1
p4069
sg30
V0.8
p4070
sg110
V3.2
p4071
sg18
V46.2
p4072
ssg32
(lp4073
sg34
I0
sg35
I00
sg36
(lp4074
g115
asg39
F1.6
sg40
F2.4
sbsS'Mike Glennon - TB'
p4075
g2
(g3
g4
Ntp4076
Rp4077
(dp4078
g8
S'Mike Glennon'
p4079
sg10
F2.0
sg11
I00
sg12
S'TB'
p4080
sg14
(dp4081
g98
V0.8
p4082
sg22
V4.7
p4083
sg101
V22.9
p4084
sg20
V0.0
p4085
sg104
V156.2
p4086
sg106
V13.4
p4087
sg28
V9.0
p4088
sg30
V0.2
p4089
sg110
V0.9
p4090
sg18
V10.5
p4091
ssg32
(lp4092
sg34
I0
sg35
I00
sg36
(lp4093
g115
asg39
F1.6
sg40
F2.4
sbsS'Kyle Rudolph - MIN'
p4094
g2
(g3
g4
Ntp4095
Rp4096
(dp4097
g8
S'Kyle Rudolph'
p4098
sg10
F2.0
sg11
I00
sg12
S'MIN'
p4099
sg14
(dp4100
g16
V52.2
p4101
sg30
V0.2
p4102
sg24
V560.2
p4103
sg26
V4.8
p4104
sg28
V84.1
p4105
ssg32
(lp4106
sg34
I0
sg35
I00
sg36
(lp4107
g90
asg39
F1.6
sg40
F2.4
sbsS'Christine Michael - DAL'
p4108
g2
(g3
g4
Ntp4109
Rp4110
(dp4111
g8
S'Christine Michael'
p4112
sg10
F2.0
sg11
I00
sg12
S'DAL'
p4113
sg14
(dp4114
g16
V3.5
p4115
sg18
V126.5
p4116
sg20
V0.5
p4117
sg22
V27.5
p4118
sg24
V27.9
p4119
sg26
V0.1
p4120
sg28
V18.3
p4121
sg30
V0.1
p4122
ssg32
(lp4123
sg34
I0
sg35
I00
sg36
(lp4124
g38
asg39
F1.6
sg40
F2.4
sbsS'Charles Clay - BUF'
p4125
g2
(g3
g4
Ntp4126
Rp4127
(dp4128
g8
S'Charles Clay'
p4129
sg10
F2.0
sg11
I00
sg12
S'BUF'
p4130
sg14
(dp4131
g16
V47.9
p4132
sg30
V0.4
p4133
sg24
V526.0
p4134
sg26
V3.3
p4135
sg28
V71.4
p4136
ssg32
(lp4137
sg34
I0
sg35
I00
sg36
(lp4138
g90
asg39
F1.6
sg40
F2.4
sbsS'Kellen Clemens - SD'
p4139
g2
(g3
g4
Ntp4140
Rp4141
(dp4142
g8
S'Kellen Clemens'
p4143
sg10
F2.0
sg11
I00
sg12
S'SD'
p4144
sg14
(dp4145
g98
V0.3
p4146
sg22
V0.8
p4147
sg101
V11.7
p4148
sg20
V0.0
p4149
sg104
V72.3
p4150
sg106
V6.8
p4151
sg28
V3.2
p4152
sg30
V0.2
p4153
sg110
V0.3
p4154
sg18
V1.3
p4155
ssg32
(lp4156
sg34
I0
sg35
I00
sg36
(lp4157
g115
asg39
F1.6
sg40
F2.4
sbsS'Fozzy Whittaker - CAR'
p4158
g2
(g3
g4
Ntp4159
Rp4160
(dp4161
g8
S'Fozzy Whittaker'
p4162
sg10
F2.0
sg11
I00
sg12
S'CAR'
p4163
sg14
(dp4164
g16
V9.4
p4165
sg18
V171.4
p4166
sg20
V0.8
p4167
sg22
V42.8
p4168
sg24
V98.9
p4169
sg26
V1.2
p4170
sg28
V36.0
p4171
sg30
V1.5
p4172
ssg32
(lp4173
sg34
I0
sg35
I00
sg36
(lp4174
g38
asg39
F1.6
sg40
F2.4
sbsS'Tony - Moeaki'
p4175
g2
(g3
g4
Ntp4176
Rp4177
(dp4178
g8
S'Tony'
p4179
sg10
F2.0
sg11
I00
sg12
S'Moeaki'
p4180
sg14
(dp4181
g16
V19.4
p4182
sg30
V0.3
p4183
sg24
V235.5
p4184
sg26
V2.0
p4185
sg28
V35.0
p4186
ssg32
(lp4187
sg34
I0
sg35
I00
sg36
(lp4188
g90
asg39
F1.6
sg40
F2.4
sbsS'Jameis Winston - TB'
p4189
g2
(g3
g4
Ntp4190
Rp4191
(dp4192
g8
S'Jameis Winston'
p4193
sg10
F2.0
sg11
I00
sg12
S'TB'
p4194
sg14
(dp4195
g98
V17.4
p4196
sg22
V43.6
p4197
sg101
V509.2
p4198
sg20
V1.1
p4199
sg104
V3703.2
p4200
sg106
V301.3
p4201
sg28
V213.3
p4202
sg30
V3.6
p4203
sg110
V20.7
p4204
sg18
V176.8
p4205
ssg32
(lp4206
sg34
I0
sg35
I00
sg36
(lp4207
g115
asg39
F1.6
sg40
F2.4
sbsS'Delanie Walker - TEN'
p4208
g2
(g3
g4
Ntp4209
Rp4210
(dp4211
g8
S'Delanie Walker'
p4212
sg10
F2.0
sg11
I00
sg12
S'TEN'
p4213
sg14
(dp4214
g16
V56.7
p4215
sg30
V0.3
p4216
sg24
V672.3
p4217
sg26
V4.3
p4218
sg28
V92.6
p4219
ssg32
(lp4220
sg34
I0
sg35
I00
sg36
(lp4221
g90
asg39
F1.6
sg40
F2.4
sbsS'Russell Wilson - SEA'
p4222
g2
(g3
g4
Ntp4223
Rp4224
(dp4225
g8
S'Russell Wilson'
p4226
sg10
F2.0
sg11
I00
sg12
S'SEA'
p4227
sg14
(dp4228
g98
V11.0
p4229
sg22
V104.2
p4230
sg101
V465.8
p4231
sg20
V4.0
p4232
sg104
V3583.4
p4233
sg106
V287.0
p4234
sg28
V303.9
p4235
sg30
V2.3
p4236
sg110
V24.5
p4237
sg18
V651.0
p4238
ssg32
(lp4239
sg34
I0
sg35
I00
sg36
(lp4240
g115
asg39
F1.6
sg40
F2.4
sbsS'Jerome Smith - ATL'
p4241
g2
(g3
g4
Ntp4242
Rp4243
(dp4244
g8
S'Jerome Smith'
p4245
sg10
F2.0
sg11
I00
sg12
S'ATL'
p4246
sg14
(dp4247
g16
V1.3
p4248
sg18
V22.1
p4249
sg20
V0.2
p4250
sg22
V6.2
p4251
sg24
V9.7
p4252
sg26
V0.0
p4253
sg28
V4.4
p4254
sg30
V0.0
p4255
ssg32
(lp4256
sg34
I0
sg35
I00
sg36
(lp4257
g38
asg39
F1.6
sg40
F2.4
sbsS'Victor Cruz - NYG'
p4258
g2
(g3
g4
Ntp4259
Rp4260
(dp4261
g8
S'Victor Cruz'
p4262
sg10
F2.0
sg11
I00
sg12
S'NYG'
p4263
sg14
(dp4264
g16
V57.5
p4265
sg18
V0.0
p4266
sg20
V0.0
p4267
sg22
V0.0
p4268
sg24
V756.3
p4269
sg26
V3.8
p4270
sg28
V97.5
p4271
sg30
V0.5
p4272
ssg32
(lp4273
sg34
I0
sg35
I00
sg36
(lp4274
g75
asg39
F1.6
sg40
F2.4
sbsS'Andre Roberts - WAS'
p4275
g2
(g3
g4
Ntp4276
Rp4277
(dp4278
g8
S'Andre Roberts'
p4279
sg10
F2.0
sg11
I00
sg12
S'WAS'
p4280
sg14
(dp4281
g16
V33.3
p4282
sg18
V5.1
p4283
sg20
V0.0
p4284
sg22
V1.1
p4285
sg24
V423.3
p4286
sg26
V2.1
p4287
sg28
V50.9
p4288
sg30
V2.2
p4289
ssg32
(lp4290
sg34
I0
sg35
I00
sg36
(lp4291
g75
asg39
F1.6
sg40
F2.4
sbsS'Jermaine Kearse - SEA'
p4292
g2
(g3
g4
Ntp4293
Rp4294
(dp4295
g8
S'Jermaine Kearse'
p4296
sg10
F2.0
sg11
I00
sg12
S'SEA'
p4297
sg14
(dp4298
g16
V36.9
p4299
sg18
V3.9
p4300
sg20
V0.1
p4301
sg22
V0.5
p4302
sg24
V530.3
p4303
sg26
V3.0
p4304
sg28
V71.0
p4305
sg30
V0.4
p4306
ssg32
(lp4307
sg34
I0
sg35
I00
sg36
(lp4308
g75
asg39
F1.6
sg40
F2.4
sbsS'Jeff Janis - GB'
p4309
g2
(g3
g4
Ntp4310
Rp4311
(dp4312
g8
S'Jeff Janis'
p4313
sg10
F2.0
sg11
I00
sg12
S'GB'
p4314
sg14
(dp4315
g16
V28.6
p4316
sg18
V0.0
p4317
sg20
V0.0
p4318
sg22
V0.0
p4319
sg24
V394.5
p4320
sg26
V2.6
p4321
sg28
V53.9
p4322
sg30
V0.5
p4323
ssg32
(lp4324
sg34
I0
sg35
I00
sg36
(lp4325
g75
asg39
F1.6
sg40
F2.4
sbsS'Ronnie - Brown'
p4326
g2
(g3
g4
Ntp4327
Rp4328
(dp4329
g8
S'Ronnie'
p4330
sg10
F2.0
sg11
I00
sg12
S'Brown'
p4331
sg14
(dp4332
g16
V2.4
p4333
sg18
V24.3
p4334
sg20
V0.1
p4335
sg22
V6.0
p4336
sg24
V16.8
p4337
sg26
V0.0
p4338
sg28
V4.8
p4339
sg30
V0.0
p4340
ssg32
(lp4341
sg34
I0
sg35
I00
sg36
(lp4342
g38
asg39
F1.6
sg40
F2.4
sbsS'Justin Forsett - BAL'
p4343
g2
(g3
g4
Ntp4344
Rp4345
(dp4346
g8
S'Justin Forsett'
p4347
sg10
F2.0
sg11
I00
sg12
S'BAL'
p4348
sg14
(dp4349
g16
V53.3
p4350
sg18
V1042.8
p4351
sg20
V5.9
p4352
sg22
V213.0
p4353
sg24
V366.9
p4354
sg26
V1.3
p4355
sg28
V181.9
p4356
sg30
V1.2
p4357
ssg32
(lp4358
sg34
I0
sg35
I00
sg36
(lp4359
g38
asg39
F1.6
sg40
F2.4
sbsS'Jalen - Saunders'
p4360
g2
(g3
g4
Ntp4361
Rp4362
(dp4363
g8
S'Jalen'
p4364
sg10
F2.0
sg11
I00
sg12
S'Saunders'
p4365
sg14
(dp4366
g16
V1.4
p4367
sg18
V0.0
p4368
sg20
V0.0
p4369
sg22
V0.0
p4370
sg24
V17.8
p4371
sg26
V0.1
p4372
sg28
V2.2
p4373
sg30
V0.1
p4374
ssg32
(lp4375
sg34
I0
sg35
I00
sg36
(lp4376
g75
asg39
F1.6
sg40
F2.4
sbsS'Travis Benjamin - CLE'
p4377
g2
(g3
g4
Ntp4378
Rp4379
(dp4380
g8
S'Travis Benjamin'
p4381
sg10
F2.0
sg11
I00
sg12
S'CLE'
p4382
sg14
(dp4383
g16
V7.9
p4384
sg18
V10.1
p4385
sg20
V0.0
p4386
sg22
V1.7
p4387
sg24
V123.2
p4388
sg26
V0.4
p4389
sg28
V15.7
p4390
sg30
V0.0
p4391
ssg32
(lp4392
sg34
I0
sg35
I00
sg36
(lp4393
g75
asg39
F1.6
sg40
F2.4
sbsS'Harry Douglas - TEN'
p4394
g2
(g3
g4
Ntp4395
Rp4396
(dp4397
g8
S'Harry Douglas'
p4398
sg10
F2.0
sg11
I00
sg12
S'TEN'
p4399
sg14
(dp4400
g16
V35.7
p4401
sg18
V0.0
p4402
sg20
V0.0
p4403
sg22
V0.0
p4404
sg24
V432.4
p4405
sg26
V1.9
p4406
sg28
V53.3
p4407
sg30
V0.7
p4408
ssg32
(lp4409
sg34
I0
sg35
I00
sg36
(lp4410
g75
asg39
F1.6
sg40
F2.4
sbsS'Rob Gronkowski - NE'
p4411
g2
(g3
g4
Ntp4412
Rp4413
(dp4414
g8
S'Rob Gronkowski'
p4415
sg10
F2.0
sg11
I00
sg12
S'NE'
p4416
sg14
(dp4417
g16
V83.0
p4418
sg30
V0.2
p4419
sg24
V1101.0
p4420
sg26
V10.6
p4421
sg28
V173.1
p4422
ssg32
(lp4423
sg34
I0
sg35
I00
sg36
(lp4424
g90
asg39
F1.6
sg40
F2.4
sbsS'Tavon Austin - STL'
p4425
g2
(g3
g4
Ntp4426
Rp4427
(dp4428
g8
S'Tavon Austin'
p4429
sg10
F2.0
sg11
I00
sg12
S'STL'
p4430
sg14
(dp4431
g16
V35.8
p4432
sg18
V154.1
p4433
sg20
V0.4
p4434
sg22
V18.1
p4435
sg24
V343.6
p4436
sg26
V1.6
p4437
sg28
V61.6
p4438
sg30
V0.3
p4439
ssg32
(lp4440
sg34
I0
sg35
I00
sg36
(lp4441
g75
asg39
F1.6
sg40
F2.4
sbsS'Darrel Young - WAS'
p4442
g2
(g3
g4
Ntp4443
Rp4444
(dp4445
g8
S'Darrel Young'
p4446
sg10
F2.0
sg11
I00
sg12
S'WAS'
p4447
sg14
(dp4448
g16
V9.5
p4449
sg18
V40.9
p4450
sg20
V2.0
p4451
sg22
V8.8
p4452
sg24
V87.9
p4453
sg26
V1.8
p4454
sg28
V35.4
p4455
sg30
V0.0
p4456
ssg32
(lp4457
sg34
I0
sg35
I00
sg36
(lp4458
g38
asg39
F1.6
sg40
F2.4
sbsS'Terrance West - TEN'
p4459
g2
(g3
g4
Ntp4460
Rp4461
(dp4462
g8
S'Terrance West'
p4463
sg10
F2.0
sg11
I00
sg12
S'TEN'
p4464
sg14
(dp4465
g16
V14.8
p4466
sg18
V341.6
p4467
sg20
V1.9
p4468
sg22
V83.0
p4469
sg24
V108.5
p4470
sg26
V0.6
p4471
sg28
V56.7
p4472
sg30
V1.6
p4473
ssg32
(lp4474
sg34
I0
sg35
I00
sg36
(lp4475
g38
asg39
F1.6
sg40
F2.4
sbsS'Brandon Coleman - NO'
p4476
g2
(g3
g4
Ntp4477
Rp4478
(dp4479
g8
S'Brandon Coleman'
p4480
sg10
F2.0
sg11
I00
sg12
S'NO'
p4481
sg14
(dp4482
g16
V43.9
p4483
sg18
V0.0
p4484
sg20
V0.0
p4485
sg22
V0.0
p4486
sg24
V622.0
p4487
sg26
V3.9
p4488
sg28
V84.0
p4489
sg30
V0.7
p4490
ssg32
(lp4491
sg34
I0
sg35
I00
sg36
(lp4492
g75
asg39
F1.6
sg40
F2.4
sbsS'Jalston Fowler - TEN'
p4493
g2
(g3
g4
Ntp4494
Rp4495
(dp4496
g8
S'Jalston Fowler'
p4497
sg10
F2.0
sg11
I00
sg12
S'TEN'
p4498
sg14
(dp4499
g16
V9.3
p4500
sg18
V75.0
p4501
sg20
V0.4
p4502
sg22
V17.9
p4503
sg24
V82.0
p4504
sg26
V0.3
p4505
sg28
V19.7
p4506
sg30
V0.1
p4507
ssg32
(lp4508
sg34
I0
sg35
I00
sg36
(lp4509
g38
asg39
F1.6
sg40
F2.4
sbsS'Cody Latimer - DEN'
p4510
g2
(g3
g4
Ntp4511
Rp4512
(dp4513
g8
S'Cody Latimer'
p4514
sg10
F2.0
sg11
I00
sg12
S'DEN'
p4515
sg14
(dp4516
g16
V39.1
p4517
sg18
V0.0
p4518
sg20
V0.0
p4519
sg22
V0.0
p4520
sg24
V518.0
p4521
sg26
V3.3
p4522
sg28
V71.0
p4523
sg30
V0.4
p4524
ssg32
(lp4525
sg34
I0
sg35
I00
sg36
(lp4526
g75
asg39
F1.6
sg40
F2.4
sbsS'George - Winn'
p4527
g2
(g3
g4
Ntp4528
Rp4529
(dp4530
g8
S'George'
p4531
sg10
F2.0
sg11
I00
sg12
S'Winn'
p4532
sg14
(dp4533
g16
V0.4
p4534
sg18
V17.8
p4535
sg20
V0.0
p4536
sg22
V4.5
p4537
sg24
V3.2
p4538
sg26
V0.0
p4539
sg28
V2.1
p4540
sg30
V0.0
p4541
ssg32
(lp4542
sg34
I0
sg35
I00
sg36
(lp4543
g38
asg39
F1.6
sg40
F2.4
sbsS'Cecil Shorts - HOU'
p4544
g2
(g3
g4
Ntp4545
Rp4546
(dp4547
g8
S'Cecil Shorts'
p4548
sg10
F2.0
sg11
I00
sg12
S'HOU'
p4549
sg14
(dp4550
g16
V40.4
p4551
sg18
V0.0
p4552
sg20
V0.0
p4553
sg22
V0.0
p4554
sg24
V513.8
p4555
sg26
V2.2
p4556
sg28
V61.2
p4557
sg30
V1.6
p4558
ssg32
(lp4559
sg34
I0
sg35
I00
sg36
(lp4560
g75
asg39
F1.6
sg40
F2.4
sbsS'Antonio Brown - PIT'
p4561
g2
(g3
g4
Ntp4562
Rp4563
(dp4564
g8
S'Antonio Brown'
p4565
sg10
F2.0
sg11
I00
sg12
S'PIT'
p4566
sg14
(dp4567
g16
V116.5
p4568
sg18
V23.2
p4569
sg20
V0.0
p4570
sg22
V4.8
p4571
sg24
V1537.8
p4572
sg26
V10.1
p4573
sg28
V213.0
p4574
sg30
V1.8
p4575
ssg32
(lp4576
sg34
I0
sg35
I00
sg36
(lp4577
g75
asg39
F1.6
sg40
F2.4
sbsS'Andre Williams - NYG'
p4578
g2
(g3
g4
Ntp4579
Rp4580
(dp4581
g8
S'Andre Williams'
p4582
sg10
F2.0
sg11
I00
sg12
S'NYG'
p4583
sg14
(dp4584
g16
V13.8
p4585
sg18
V390.5
p4586
sg20
V3.6
p4587
sg22
V100.4
p4588
sg24
V99.9
p4589
sg26
V0.2
p4590
sg28
V68.2
p4591
sg30
V1.8
p4592
ssg32
(lp4593
sg34
I0
sg35
I00
sg36
(lp4594
g38
asg39
F1.6
sg40
F2.4
sbsS'Austin Seferian-Jenkins - TB'
p4595
g2
(g3
g4
Ntp4596
Rp4597
(dp4598
g8
S'Austin Seferian-Jenkins'
p4599
sg10
F2.0
sg11
I00
sg12
S'TB'
p4600
sg14
(dp4601
g16
V49.8
p4602
sg30
V2.6
p4603
sg24
V539.2
p4604
sg26
V3.3
p4605
sg28
V68.5
p4606
ssg32
(lp4607
sg34
I0
sg35
I00
sg36
(lp4608
g90
asg39
F1.6
sg40
F2.4
sbsS'Marques Colston - NO'
p4609
g2
(g3
g4
Ntp4610
Rp4611
(dp4612
g8
S'Marques Colston'
p4613
sg10
F2.0
sg11
I00
sg12
S'NO'
p4614
sg14
(dp4615
g16
V58.1
p4616
sg18
V0.0
p4617
sg20
V0.0
p4618
sg22
V0.0
p4619
sg24
V858.9
p4620
sg26
V4.9
p4621
sg28
V112.8
p4622
sg30
V1.1
p4623
ssg32
(lp4624
sg34
I0
sg35
I00
sg36
(lp4625
g75
asg39
F1.6
sg40
F2.4
sbsS'B.J. Daniels - SEA'
p4626
g2
(g3
g4
Ntp4627
Rp4628
(dp4629
g8
S'B.J. Daniels'
p4630
sg10
F2.0
sg11
I00
sg12
S'SEA'
p4631
sg14
(dp4632
g98
V1.0
p4633
sg22
V2.7
p4634
sg101
V28.7
p4635
sg20
V0.0
p4636
sg104
V203.7
p4637
sg106
V16.9
p4638
sg28
V12.1
p4639
sg30
V0.1
p4640
sg110
V1.2
p4641
sg18
V10.6
p4642
ssg32
(lp4643
sg34
I0
sg35
I00
sg36
(lp4644
g115
asg39
F1.6
sg40
F2.4
sbsS'Garrett Graham - HOU'
p4645
g2
(g3
g4
Ntp4646
Rp4647
(dp4648
g8
S'Garrett Graham'
p4649
sg10
F2.0
sg11
I00
sg12
S'HOU'
p4650
sg14
(dp4651
g16
V33.6
p4652
sg30
V0.8
p4653
sg24
V350.2
p4654
sg26
V2.5
p4655
sg28
V48.4
p4656
ssg32
(lp4657
sg34
I0
sg35
I00
sg36
(lp4658
g90
asg39
F1.6
sg40
F2.4
sbsS"Je'Ron - Hamm"
p4659
g2
(g3
g4
Ntp4660
Rp4661
(dp4662
g8
S"Je'Ron"
p4663
sg10
F2.0
sg11
I00
sg12
S'Hamm'
p4664
sg14
(dp4665
g16
V0.7
p4666
sg30
V0.0
p4667
sg24
V8.5
p4668
sg26
V0.0
p4669
sg28
V0.9
p4670
ssg32
(lp4671
sg34
I0
sg35
I00
sg36
(lp4672
g90
asg39
F1.6
sg40
F2.4
sbsS'Albert Wilson - KC'
p4673
g2
(g3
g4
Ntp4674
Rp4675
(dp4676
g8
S'Albert Wilson'
p4677
sg10
F2.0
sg11
I00
sg12
S'KC'
p4678
sg14
(dp4679
g16
V25.4
p4680
sg18
V0.0
p4681
sg20
V0.0
p4682
sg22
V0.0
p4683
sg24
V345.3
p4684
sg26
V1.7
p4685
sg28
V44.3
p4686
sg30
V0.3
p4687
ssg32
(lp4688
sg34
I0
sg35
I00
sg36
(lp4689
g75
asg39
F1.6
sg40
F2.4
sbsS'Carlos Hyde - SF'
p4690
g2
(g3
g4
Ntp4691
Rp4692
(dp4693
g8
S'Carlos Hyde'
p4694
sg10
F2.0
sg11
I00
sg12
S'SF'
p4695
sg14
(dp4696
g16
V25.8
p4697
sg18
V1000.3
p4698
sg20
V6.7
p4699
sg22
V236.8
p4700
sg24
V182.7
p4701
sg26
V0.6
p4702
sg28
V158.8
p4703
sg30
V1.7
p4704
ssg32
(lp4705
sg34
I0
sg35
I00
sg36
(lp4706
g38
asg39
F1.6
sg40
F2.4
sbsS'Brandon Williams - ARI'
p4707
g2
(g3
g4
Ntp4708
Rp4709
(dp4710
g8
S'Brandon Williams'
p4711
sg10
F2.0
sg11
I00
sg12
S'ARI'
p4712
sg14
(dp4713
g16
V2.4
p4714
sg30
V0.0
p4715
sg24
V24.1
p4716
sg26
V0.2
p4717
sg28
V3.4
p4718
ssg32
(lp4719
sg34
I0
sg35
I00
sg36
(lp4720
g90
asg39
F1.6
sg40
F2.4
sbsS'Orleans Darkwa - NYG'
p4721
g2
(g3
g4
Ntp4722
Rp4723
(dp4724
g8
S'Orleans Darkwa'
p4725
sg10
F2.0
sg11
I00
sg12
S'NYG'
p4726
sg14
(dp4727
g16
V2.5
p4728
sg18
V13.5
p4729
sg20
V0.2
p4730
sg22
V4.5
p4731
sg24
V24.8
p4732
sg26
V0.1
p4733
sg28
V5.2
p4734
sg30
V0.1
p4735
ssg32
(lp4736
sg34
I0
sg35
I00
sg36
(lp4737
g38
asg39
F1.6
sg40
F2.4
sbsS'Michael Hoomanawanui - NE'
p4738
g2
(g3
g4
Ntp4739
Rp4740
(dp4741
g8
S'Michael Hoomanawanui'
p4742
sg10
F2.0
sg11
I00
sg12
S'NE'
p4743
sg14
(dp4744
g16
V3.2
p4745
sg30
V0.0
p4746
sg24
V33.2
p4747
sg26
V0.3
p4748
sg28
V5.3
p4749
ssg32
(lp4750
sg34
I0
sg35
I00
sg36
(lp4751
g90
asg39
F1.6
sg40
F2.4
sbsS'Montee - Ball'
p4752
g2
(g3
g4
Ntp4753
Rp4754
(dp4755
g8
S'Montee'
p4756
sg10
F2.0
sg11
I00
sg12
S'Ball'
p4757
sg14
(dp4758
g16
V9.2
p4759
sg18
V251.9
p4760
sg20
V1.8
p4761
sg22
V61.6
p4762
sg24
V64.6
p4763
sg26
V0.4
p4764
sg28
V45.1
p4765
sg30
V0.0
p4766
ssg32
(lp4767
sg34
I0
sg35
I00
sg36
(lp4768
g38
asg39
F1.6
sg40
F2.4
sbsS'Eric Ebron - DET'
p4769
g2
(g3
g4
Ntp4770
Rp4771
(dp4772
g8
S'Eric Ebron'
p4773
sg10
F2.0
sg11
I00
sg12
S'DET'
p4774
sg14
(dp4775
g16
V43.8
p4776
sg30
V0.3
p4777
sg24
V462.1
p4778
sg26
V2.7
p4779
sg28
V62.1
p4780
ssg32
(lp4781
sg34
I0
sg35
I00
sg36
(lp4782
g90
asg39
F1.6
sg40
F2.4
sbsS'Luke McCown - NO'
p4783
g2
(g3
g4
Ntp4784
Rp4785
(dp4786
g8
S'Luke McCown'
p4787
sg10
F2.0
sg11
I00
sg12
S'NO'
p4788
sg14
(dp4789
g98
V0.2
p4790
sg22
V0.7
p4791
sg101
V11.2
p4792
sg20
V0.0
p4793
sg104
V74.3
p4794
sg106
V6.7
p4795
sg28
V3.7
p4796
sg30
V0.1
p4797
sg110
V0.3
p4798
sg18
V1.6
p4799
ssg32
(lp4800
sg34
I0
sg35
I00
sg36
(lp4801
g115
asg39
F1.6
sg40
F2.4
sbsS'Jay Ajayi - MIA'
p4802
g2
(g3
g4
Ntp4803
Rp4804
(dp4805
g8
S'Jay Ajayi'
p4806
sg10
F2.0
sg11
I00
sg12
S'MIA'
p4807
sg14
(dp4808
g16
V10.3
p4809
sg18
V149.8
p4810
sg20
V0.8
p4811
sg22
V36.3
p4812
sg24
V75.2
p4813
sg26
V0.1
p4814
sg28
V27.8
p4815
sg30
V0.0
p4816
ssg32
(lp4817
sg34
I0
sg35
I00
sg36
(lp4818
g38
asg39
F1.6
sg40
F2.4
sbsS'Marcus Thigpen - BUF'
p4819
g2
(g3
g4
Ntp4820
Rp4821
(dp4822
g8
S'Marcus Thigpen'
p4823
sg10
F2.0
sg11
I00
sg12
S'BUF'
p4824
sg14
(dp4825
g16
V4.5
p4826
sg18
V8.8
p4827
sg20
V0.1
p4828
sg22
V2.9
p4829
sg24
V26.2
p4830
sg26
V0.1
p4831
sg28
V4.7
p4832
sg30
V0.0
p4833
ssg32
(lp4834
sg34
I0
sg35
I00
sg36
(lp4835
g38
asg39
F1.6
sg40
F2.4
sbsS'Preston Parker - NYG'
p4836
g2
(g3
g4
Ntp4837
Rp4838
(dp4839
g8
S'Preston Parker'
p4840
sg10
F2.0
sg11
I00
sg12
S'NYG'
p4841
sg14
(dp4842
g16
V12.5
p4843
sg18
V0.0
p4844
sg20
V0.0
p4845
sg22
V0.0
p4846
sg24
V159.0
p4847
sg26
V0.8
p4848
sg28
V20.1
p4849
sg30
V0.2
p4850
ssg32
(lp4851
sg34
I0
sg35
I00
sg36
(lp4852
g75
asg39
F1.6
sg40
F2.4
sbsS'Colt McCoy - WAS'
p4853
g2
(g3
g4
Ntp4854
Rp4855
(dp4856
g8
S'Colt McCoy'
p4857
sg10
F2.0
sg11
I00
sg12
S'WAS'
p4858
sg14
(dp4859
g98
V1.1
p4860
sg22
V2.9
p4861
sg101
V30.2
p4862
sg20
V0.1
p4863
sg104
V218.5
p4864
sg106
V19.3
p4865
sg28
V13.9
p4866
sg30
V0.2
p4867
sg110
V1.6
p4868
sg18
V9.9
p4869
ssg32
(lp4870
sg34
I0
sg35
I00
sg36
(lp4871
g115
asg39
F1.6
sg40
F2.4
sbsS'Golden Tate - DET'
p4872
g2
(g3
g4
Ntp4873
Rp4874
(dp4875
g8
S'Golden Tate'
p4876
sg10
F2.0
sg11
I00
sg12
S'DET'
p4877
sg14
(dp4878
g16
V80.7
p4879
sg18
V11.8
p4880
sg20
V0.0
p4881
sg22
V2.2
p4882
sg24
V1052.9
p4883
sg26
V5.6
p4884
sg28
V139.6
p4885
sg30
V0.3
p4886
ssg32
(lp4887
sg34
I0
sg35
I00
sg36
(lp4888
g75
asg39
F1.6
sg40
F2.4
sbsS'Torrey Smith - SF'
p4889
g2
(g3
g4
Ntp4890
Rp4891
(dp4892
g8
S'Torrey Smith'
p4893
sg10
F2.0
sg11
I00
sg12
S'SF'
p4894
sg14
(dp4895
g16
V52.3
p4896
sg18
V0.0
p4897
sg20
V0.0
p4898
sg22
V0.0
p4899
sg24
V821.2
p4900
sg26
V5.1
p4901
sg28
V111.9
p4902
sg30
V0.4
p4903
ssg32
(lp4904
sg34
I0
sg35
I00
sg36
(lp4905
g75
asg39
F1.6
sg40
F2.4
sbsS'Tommy Bohanon - NYJ'
p4906
g2
(g3
g4
Ntp4907
Rp4908
(dp4909
g8
S'Tommy Bohanon'
p4910
sg10
F2.0
sg11
I00
sg12
S'NYJ'
p4911
sg14
(dp4912
g16
V15.7
p4913
sg18
V67.0
p4914
sg20
V0.2
p4915
sg22
V16.9
p4916
sg24
V136.0
p4917
sg26
V0.2
p4918
sg28
V22.7
p4919
sg30
V0.0
p4920
ssg32
(lp4921
sg34
I0
sg35
I00
sg36
(lp4922
g38
asg39
F1.6
sg40
F2.4
sbsS'Russell Shepard - TB'
p4923
g2
(g3
g4
Ntp4924
Rp4925
(dp4926
g8
S'Russell Shepard'
p4927
sg10
F2.0
sg11
I00
sg12
S'TB'
p4928
sg14
(dp4929
g16
V1.9
p4930
sg18
V0.0
p4931
sg20
V0.0
p4932
sg22
V0.0
p4933
sg24
V28.9
p4934
sg26
V0.1
p4935
sg28
V3.4
p4936
sg30
V0.0
p4937
ssg32
(lp4938
sg34
I0
sg35
I00
sg36
(lp4939
g75
asg39
F1.6
sg40
F2.4
sbsS'Zach Zenner - DET'
p4940
g2
(g3
g4
Ntp4941
Rp4942
(dp4943
g8
S'Zach Zenner'
p4944
sg10
F2.0
sg11
I00
sg12
S'DET'
p4945
sg14
(dp4946
g16
V0.5
p4947
sg18
V40.1
p4948
sg20
V0.1
p4949
sg22
V10.4
p4950
sg24
V4.3
p4951
sg26
V0.0
p4952
sg28
V4.7
p4953
sg30
V0.0
p4954
ssg32
(lp4955
sg34
I0
sg35
I00
sg36
(lp4956
g38
asg39
F1.6
sg40
F2.4
sbsS'Ryan Mathews - PHI'
p4957
g2
(g3
g4
Ntp4958
Rp4959
(dp4960
g8
S'Ryan Mathews'
p4961
sg10
F2.0
sg11
I00
sg12
S'PHI'
p4962
sg14
(dp4963
g16
V15.2
p4964
sg18
V576.8
p4965
sg20
V5.4
p4966
sg22
V126.1
p4967
sg24
V127.7
p4968
sg26
V0.6
p4969
sg28
V102.5
p4970
sg30
V1.9
p4971
ssg32
(lp4972
sg34
I0
sg35
I00
sg36
(lp4973
g38
asg39
F1.6
sg40
F2.4
sbsS'Bishop Sankey - TEN'
p4974
g2
(g3
g4
Ntp4975
Rp4976
(dp4977
g8
S'Bishop Sankey'
p4978
sg10
F2.0
sg11
I00
sg12
S'TEN'
p4979
sg14
(dp4980
g16
V21.3
p4981
sg18
V634.1
p4982
sg20
V3.2
p4983
sg22
V157.0
p4984
sg24
V157.0
p4985
sg26
V0.4
p4986
sg28
V95.4
p4987
sg30
V2.5
p4988
ssg32
(lp4989
sg34
I0
sg35
I00
sg36
(lp4990
g38
asg39
F1.6
sg40
F2.4
sbsS'Greg Little - CIN'
p4991
g2
(g3
g4
Ntp4992
Rp4993
(dp4994
g8
S'Greg Little'
p4995
sg10
F2.0
sg11
I00
sg12
S'CIN'
p4996
sg14
(dp4997
g16
V2.5
p4998
sg18
V0.0
p4999
sg20
V0.0
p5000
sg22
V0.0
p5001
sg24
V28.1
p5002
sg26
V0.1
p5003
sg28
V3.4
p5004
sg30
V0.0
p5005
ssg32
(lp5006
sg34
I0
sg35
I00
sg36
(lp5007
g75
asg39
F1.6
sg40
F2.4
sbsS'Chris Gragg - BUF'
p5008
g2
(g3
g4
Ntp5009
Rp5010
(dp5011
g8
S'Chris Gragg'
p5012
sg10
F2.0
sg11
I00
sg12
S'BUF'
p5013
sg14
(dp5014
g16
V15.1
p5015
sg30
V0.4
p5016
sg24
V161.6
p5017
sg26
V1.5
p5018
sg28
V24.6
p5019
ssg32
(lp5020
sg34
I0
sg35
I00
sg36
(lp5021
g90
asg39
F1.6
sg40
F2.4
sbsS'Dion Lewis - NE'
p5022
g2
(g3
g4
Ntp5023
Rp5024
(dp5025
g8
S'Dion Lewis'
p5026
sg10
F2.0
sg11
I00
sg12
S'NE'
p5027
sg14
(dp5028
g16
V4.6
p5029
sg18
V74.8
p5030
sg20
V0.7
p5031
sg22
V20.0
p5032
sg24
V34.1
p5033
sg26
V0.1
p5034
sg28
V15.1
p5035
sg30
V0.2
p5036
ssg32
(lp5037
sg34
I0
sg35
I00
sg36
(lp5038
g38
asg39
F1.6
sg40
F2.4
sbsS'Malcom Floyd - SD'
p5039
g2
(g3
g4
Ntp5040
Rp5041
(dp5042
g8
S'Malcom Floyd'
p5043
sg10
F2.0
sg11
I00
sg12
S'SD'
p5044
sg14
(dp5045
g16
V43.0
p5046
sg18
V0.0
p5047
sg20
V0.0
p5048
sg22
V0.0
p5049
sg24
V765.6
p5050
sg26
V4.6
p5051
sg28
V103.7
p5052
sg30
V0.2
p5053
ssg32
(lp5054
sg34
I0
sg35
I00
sg36
(lp5055
g75
asg39
F1.6
sg40
F2.4
sbsS'Josh McCown - CLE'
p5056
g2
(g3
g4
Ntp5057
Rp5058
(dp5059
g8
S'Josh McCown'
p5060
sg10
F2.0
sg11
I00
sg12
S'CLE'
p5061
sg14
(dp5062
g98
V13.7
p5063
sg22
V36.2
p5064
sg101
V433.2
p5065
sg20
V1.6
p5066
sg104
V3009.7
p5067
sg106
V251.2
p5068
sg28
V169.5
p5069
sg30
V3.3
p5070
sg110
V14.3
p5071
sg18
V164.5
p5072
ssg32
(lp5073
sg34
I0
sg35
I00
sg36
(lp5074
g115
asg39
F1.6
sg40
F2.4
sbsS'Matt Schaub - BAL'
p5075
g2
(g3
g4
Ntp5076
Rp5077
(dp5078
g8
S'Matt Schaub'
p5079
sg10
F2.0
sg11
I00
sg12
S'BAL'
p5080
sg14
(dp5081
g98
V0.4
p5082
sg22
V1.4
p5083
sg101
V11.2
p5084
sg20
V0.0
p5085
sg104
V70.1
p5086
sg106
V6.7
p5087
sg28
V2.5
p5088
sg30
V0.3
p5089
sg110
V0.2
p5090
sg18
V1.4
p5091
ssg32
(lp5092
sg34
I0
sg35
I00
sg36
(lp5093
g115
asg39
F1.6
sg40
F2.4
sbsS'Brandon Tate - CIN'
p5094
g2
(g3
g4
Ntp5095
Rp5096
(dp5097
g8
S'Brandon Tate'
p5098
sg10
F2.0
sg11
I00
sg12
S'CIN'
p5099
sg14
(dp5100
g16
V18.1
p5101
sg18
V5.4
p5102
sg20
V0.0
p5103
sg22
V0.8
p5104
sg24
V223.1
p5105
sg26
V0.8
p5106
sg28
V23.6
p5107
sg30
V1.9
p5108
ssg32
(lp5109
sg34
I0
sg35
I00
sg36
(lp5110
g75
asg39
F1.6
sg40
F2.4
sbsS'Cameron Brate - TB'
p5111
g2
(g3
g4
Ntp5112
Rp5113
(dp5114
g8
S'Cameron Brate'
p5115
sg10
F2.0
sg11
I00
sg12
S'TB'
p5116
sg14
(dp5117
g16
V5.6
p5118
sg30
V0.0
p5119
sg24
V69.3
p5120
sg26
V0.6
p5121
sg28
V10.6
p5122
ssg32
(lp5123
sg34
I0
sg35
I00
sg36
(lp5124
g90
asg39
F1.6
sg40
F2.4
sbsS'Bobby Rainey - TB'
p5125
g2
(g3
g4
Ntp5126
Rp5127
(dp5128
g8
S'Bobby Rainey'
p5129
sg10
F2.0
sg11
I00
sg12
S'TB'
p5130
sg14
(dp5131
g16
V10.5
p5132
sg18
V127.0
p5133
sg20
V0.7
p5134
sg22
V29.2
p5135
sg24
V81.3
p5136
sg26
V0.1
p5137
sg28
V25.2
p5138
sg30
V0.3
p5139
ssg32
(lp5140
sg34
I0
sg35
I00
sg36
(lp5141
g38
asg39
F1.6
sg40
F2.4
sbsS'Darren Fells - ARI'
p5142
g2
(g3
g4
Ntp5143
Rp5144
(dp5145
g8
S'Darren Fells'
p5146
sg10
F2.0
sg11
I00
sg12
S'ARI'
p5147
sg14
(dp5148
g16
V19.6
p5149
sg30
V0.3
p5150
sg24
V218.2
p5151
sg26
V2.3
p5152
sg28
V35.0
p5153
ssg32
(lp5154
sg34
I0
sg35
I00
sg36
(lp5155
g90
asg39
F1.6
sg40
F2.4
sbsS'Brice Butler - OAK'
p5156
g2
(g3
g4
Ntp5157
Rp5158
(dp5159
g8
S'Brice Butler'
p5160
sg10
F2.0
sg11
I00
sg12
S'OAK'
p5161
sg14
(dp5162
g16
V4.3
p5163
sg18
V0.0
p5164
sg20
V0.0
p5165
sg22
V0.0
p5166
sg24
V54.1
p5167
sg26
V0.2
p5168
sg28
V6.8
p5169
sg30
V0.0
p5170
ssg32
(lp5171
sg34
I0
sg35
I00
sg36
(lp5172
g75
asg39
F1.6
sg40
F2.4
sbsS'Coby Fleener - IND'
p5173
g2
(g3
g4
Ntp5174
Rp5175
(dp5176
g8
S'Coby Fleener'
p5177
sg10
F2.0
sg11
I00
sg12
S'IND'
p5178
sg14
(dp5179
g16
V45.9
p5180
sg30
V0.3
p5181
sg24
V570.1
p5182
sg26
V4.8
p5183
sg28
V85.1
p5184
ssg32
(lp5185
sg34
I0
sg35
I00
sg36
(lp5186
g90
asg39
F1.6
sg40
F2.4
sbsS'Josh Hill - NO'
p5187
g2
(g3
g4
Ntp5188
Rp5189
(dp5190
g8
S'Josh Hill'
p5191
sg10
F2.0
sg11
I00
sg12
S'NO'
p5192
sg14
(dp5193
g16
V39.7
p5194
sg30
V0.4
p5195
sg24
V433.8
p5196
sg26
V4.1
p5197
sg28
V67.0
p5198
ssg32
(lp5199
sg34
I0
sg35
I00
sg36
(lp5200
g90
asg39
F1.6
sg40
F2.4
sbsS'Brock Osweiler - DEN'
p5201
g2
(g3
g4
Ntp5202
Rp5203
(dp5204
g8
S'Brock Osweiler'
p5205
sg10
F2.0
sg11
I00
sg12
S'DEN'
p5206
sg14
(dp5207
g98
V0.1
p5208
sg22
V1.4
p5209
sg101
V7.7
p5210
sg20
V0.0
p5211
sg104
V51.4
p5212
sg106
V4.6
p5213
sg28
V2.7
p5214
sg30
V0.1
p5215
sg110
V0.2
p5216
sg18
V2.5
p5217
ssg32
(lp5218
sg34
I0
sg35
I00
sg36
(lp5219
g115
asg39
F1.6
sg40
F2.4
sbsS'Fred Jackson - SEA'
p5220
g2
(g3
g4
Ntp5221
Rp5222
(dp5223
g8
S'Fred Jackson'
p5224
sg10
F2.0
sg11
I00
sg12
S'SEA'
p5225
sg14
(dp5226
g16
V14.2
p5227
sg18
V190.9
p5228
sg20
V1.2
p5229
sg22
V44.9
p5230
sg24
V109.9
p5231
sg26
V0.3
p5232
sg28
V38.8
p5233
sg30
V0.1
p5234
ssg32
(lp5235
sg34
I0
sg35
I00
sg36
(lp5236
g38
asg39
F1.6
sg40
F2.4
sbsS'Kenny Britt - STL'
p5237
g2
(g3
g4
Ntp5238
Rp5239
(dp5240
g8
S'Kenny Britt'
p5241
sg10
F2.0
sg11
I00
sg12
S'STL'
p5242
sg14
(dp5243
g16
V47.6
p5244
sg18
V0.2
p5245
sg20
V0.0
p5246
sg22
V0.2
p5247
sg24
V689.2
p5248
sg26
V3.8
p5249
sg28
V91.3
p5250
sg30
V0.3
p5251
ssg32
(lp5252
sg34
I0
sg35
I00
sg36
(lp5253
g75
asg39
F1.6
sg40
F2.4
sbsS'Damien Williams - MIA'
p5254
g2
(g3
g4
Ntp5255
Rp5256
(dp5257
g8
S'Damien Williams'
p5258
sg10
F2.0
sg11
I00
sg12
S'MIA'
p5259
sg14
(dp5260
g16
V19.3
p5261
sg18
V320.5
p5262
sg20
V2.1
p5263
sg22
V81.2
p5264
sg24
V166.3
p5265
sg26
V0.5
p5266
sg28
V61.3
p5267
sg30
V1.3
p5268
ssg32
(lp5269
sg34
I0
sg35
I00
sg36
(lp5270
g38
asg39
F1.6
sg40
F2.4
sbsS'Josh Huff - PHI'
p5271
g2
(g3
g4
Ntp5272
Rp5273
(dp5274
g8
S'Josh Huff'
p5275
sg10
F2.0
sg11
I00
sg12
S'PHI'
p5276
sg14
(dp5277
g16
V19.0
p5278
sg18
V1.7
p5279
sg20
V0.0
p5280
sg22
V0.6
p5281
sg24
V256.9
p5282
sg26
V1.2
p5283
sg28
V25.7
p5284
sg30
V3.8
p5285
ssg32
(lp5286
sg34
I0
sg35
I00
sg36
(lp5287
g75
asg39
F1.6
sg40
F2.4
sbsS'Mark Sanchez - PHI'
p5288
g2
(g3
g4
Ntp5289
Rp5290
(dp5291
g8
S'Mark Sanchez'
p5292
sg10
F2.0
sg11
I00
sg12
S'PHI'
p5293
sg14
(dp5294
g98
V2.1
p5295
sg22
V6.2
p5296
sg101
V55.3
p5297
sg20
V0.0
p5298
sg104
V409.7
p5299
sg106
V34.3
p5300
sg28
V24.6
p5301
sg30
V0.2
p5302
sg110
V2.8
p5303
sg18
V16.2
p5304
ssg32
(lp5305
sg34
I0
sg35
I00
sg36
(lp5306
g115
asg39
F1.6
sg40
F2.4
sbsS'Brian Hartline - CLE'
p5307
g2
(g3
g4
Ntp5308
Rp5309
(dp5310
g8
S'Brian Hartline'
p5311
sg10
F2.0
sg11
I00
sg12
S'CLE'
p5312
sg14
(dp5313
g16
V40.3
p5314
sg18
V0.0
p5315
sg20
V0.0
p5316
sg22
V0.0
p5317
sg24
V561.1
p5318
sg26
V2.2
p5319
sg28
V69.1
p5320
sg30
V0.2
p5321
ssg32
(lp5322
sg34
I0
sg35
I00
sg36
(lp5323
g75
asg39
F1.6
sg40
F2.4
sbsS'Arian Foster - HOU'
p5324
g2
(g3
g4
Ntp5325
Rp5326
(dp5327
g8
S'Arian Foster'
p5328
sg10
F2.0
sg11
I00
sg12
S'HOU'
p5329
sg14
(dp5330
g16
V32.1
p5331
sg18
V905.3
p5332
sg20
V5.9
p5333
sg22
V197.5
p5334
sg24
V269.9
p5335
sg26
V2.1
p5336
sg28
V162.1
p5337
sg30
V1.7
p5338
ssg32
(lp5339
sg34
I0
sg35
I00
sg36
(lp5340
g38
asg39
F1.6
sg40
F2.4
sbsS'Kenny Stills - MIA'
p5341
g2
(g3
g4
Ntp5342
Rp5343
(dp5344
g8
S'Kenny Stills'
p5345
sg10
F2.0
sg11
I00
sg12
S'MIA'
p5346
sg14
(dp5347
g16
V45.8
p5348
sg18
V9.4
p5349
sg20
V0.0
p5350
sg22
V1.5
p5351
sg24
V665.3
p5352
sg26
V3.5
p5353
sg28
V88.1
p5354
sg30
V0.3
p5355
ssg32
(lp5356
sg34
I0
sg35
I00
sg36
(lp5357
g75
asg39
F1.6
sg40
F2.4
sbsS'Jerick McKinnon - MIN'
p5358
g2
(g3
g4
Ntp5359
Rp5360
(dp5361
g8
S'Jerick McKinnon'
p5362
sg10
F2.0
sg11
I00
sg12
S'MIN'
p5363
sg14
(dp5364
g16
V23.5
p5365
sg18
V287.8
p5366
sg20
V1.6
p5367
sg22
V60.8
p5368
sg24
V150.9
p5369
sg26
V0.4
p5370
sg28
V54.2
p5371
sg30
V0.8
p5372
ssg32
(lp5373
sg34
I0
sg35
I00
sg36
(lp5374
g38
asg39
F1.6
sg40
F2.4
sbsS'Jared Cook - STL'
p5375
g2
(g3
g4
Ntp5376
Rp5377
(dp5378
g8
S'Jared Cook'
p5379
sg10
F2.0
sg11
I00
sg12
S'STL'
p5380
sg14
(dp5381
g16
V48.1
p5382
sg30
V0.3
p5383
sg24
V574.8
p5384
sg26
V3.5
p5385
sg28
V78.0
p5386
ssg32
(lp5387
sg34
I0
sg35
I00
sg36
(lp5388
g90
asg39
F1.6
sg40
F2.4
sbsS'Vick Ballard - IND'
p5389
g2
(g3
g4
Ntp5390
Rp5391
(dp5392
g8
S'Vick Ballard'
p5393
sg10
F2.0
sg11
I00
sg12
S'IND'
p5394
sg14
(dp5395
g16
V6.8
p5396
sg18
V93.4
p5397
sg20
V0.7
p5398
sg22
V22.3
p5399
sg24
V53.0
p5400
sg26
V0.1
p5401
sg28
V19.4
p5402
sg30
V0.0
p5403
ssg32
(lp5404
sg34
I0
sg35
I00
sg36
(lp5405
g38
asg39
F1.6
sg40
F2.4
sbsS'Branden Oliver - SD'
p5406
g2
(g3
g4
Ntp5407
Rp5408
(dp5409
g8
S'Branden Oliver'
p5410
sg10
F2.0
sg11
I00
sg12
S'SD'
p5411
sg14
(dp5412
g16
V14.4
p5413
sg18
V265.3
p5414
sg20
V2.2
p5415
sg22
V68.3
p5416
sg24
V113.3
p5417
sg26
V0.3
p5418
sg28
V50.9
p5419
sg30
V0.9
p5420
ssg32
(lp5421
sg34
I0
sg35
I00
sg36
(lp5422
g38
asg39
F1.6
sg40
F2.4
sbsS'Brandon LaFell - NE'
p5423
g2
(g3
g4
Ntp5424
Rp5425
(dp5426
g8
S'Brandon LaFell'
p5427
sg10
F2.0
sg11
I00
sg12
S'NE'
p5428
sg14
(dp5429
g16
V44.3
p5430
sg18
V1.9
p5431
sg20
V0.0
p5432
sg22
V0.3
p5433
sg24
V571.3
p5434
sg26
V4.0
p5435
sg28
V79.1
p5436
sg30
V1.0
p5437
ssg32
(lp5438
sg34
I0
sg35
I00
sg36
(lp5439
g75
asg39
F1.6
sg40
F2.4
sbsS'Marlon Brown - BAL'
p5440
g2
(g3
g4
Ntp5441
Rp5442
(dp5443
g8
S'Marlon Brown'
p5444
sg10
F2.0
sg11
I00
sg12
S'BAL'
p5445
sg14
(dp5446
g16
V23.5
p5447
sg18
V0.2
p5448
sg20
V0.0
p5449
sg22
V0.0
p5450
sg24
V280.5
p5451
sg26
V1.8
p5452
sg28
V38.4
p5453
sg30
V0.3
p5454
ssg32
(lp5455
sg34
I0
sg35
I00
sg36
(lp5456
g75
asg39
F1.6
sg40
F2.4
sbsS'Jacoby Jones - SD'
p5457
g2
(g3
g4
Ntp5458
Rp5459
(dp5460
g8
S'Jacoby Jones'
p5461
sg10
F2.0
sg11
I00
sg12
S'SD'
p5462
sg14
(dp5463
g16
V20.8
p5464
sg18
V0.6
p5465
sg20
V0.0
p5466
sg22
V0.7
p5467
sg24
V267.0
p5468
sg26
V1.3
p5469
sg28
V30.9
p5470
sg30
V1.8
p5471
ssg32
(lp5472
sg34
I0
sg35
I00
sg36
(lp5473
g75
asg39
F1.6
sg40
F2.4
sbsS'Melvin Gordon - SD'
p5474
g2
(g3
g4
Ntp5475
Rp5476
(dp5477
g8
S'Melvin Gordon'
p5478
sg10
F2.0
sg11
I00
sg12
S'SD'
p5479
sg14
(dp5480
g16
V33.6
p5481
sg18
V1000.8
p5482
sg20
V5.9
p5483
sg22
V224.6
p5484
sg24
V268.5
p5485
sg26
V1.4
p5486
sg28
V168.7
p5487
sg30
V1.1
p5488
ssg32
(lp5489
sg34
I0
sg35
I00
sg36
(lp5490
g38
asg39
F1.6
sg40
F2.4
sbsS'Karlos Williams - BUF'
p5491
g2
(g3
g4
Ntp5492
Rp5493
(dp5494
g8
S'Karlos Williams'
p5495
sg10
F2.0
sg11
I00
sg12
S'BUF'
p5496
sg14
(dp5497
g16
V11.6
p5498
sg18
V206.6
p5499
sg20
V1.4
p5500
sg22
V49.6
p5501
sg24
V89.7
p5502
sg26
V0.3
p5503
sg28
V36.8
p5504
sg30
V1.7
p5505
ssg32
(lp5506
sg34
I0
sg35
I00
sg36
(lp5507
g38
asg39
F1.6
sg40
F2.4
sbsS'Charles Johnson - MIN'
p5508
g2
(g3
g4
Ntp5509
Rp5510
(dp5511
g8
S'Charles Johnson'
p5512
sg10
F2.0
sg11
I00
sg12
S'MIN'
p5513
sg14
(dp5514
g16
V57.5
p5515
sg18
V0.3
p5516
sg20
V0.0
p5517
sg22
V0.4
p5518
sg24
V814.2
p5519
sg26
V5.1
p5520
sg28
V111.5
p5521
sg30
V0.2
p5522
ssg32
(lp5523
sg34
I0
sg35
I00
sg36
(lp5524
g75
asg39
F1.6
sg40
F2.4
sbsS'Dexter McCluster - TEN'
p5525
g2
(g3
g4
Ntp5526
Rp5527
(dp5528
g8
S'Dexter McCluster'
p5529
sg10
F2.0
sg11
I00
sg12
S'TEN'
p5530
sg14
(dp5531
g16
V40.0
p5532
sg18
V184.0
p5533
sg20
V1.0
p5534
sg22
V45.0
p5535
sg24
V362.0
p5536
sg26
V1.0
p5537
sg28
V66.6
p5538
sg30
V0.0
p5539
ssg32
(lp5540
sg34
I0
sg35
I00
sg36
(lp5541
g38
ag75
asg39
F1.6
sg40
F2.4
sbsS'Josh - Morgan'
p5542
g2
(g3
g4
Ntp5543
Rp5544
(dp5545
g8
S'Josh'
p5546
sg10
F2.0
sg11
I00
sg12
S'Morgan'
p5547
sg14
(dp5548
g16
V4.5
p5549
sg18
V0.0
p5550
sg20
V0.0
p5551
sg22
V0.0
p5552
sg24
V52.8
p5553
sg26
V0.1
p5554
sg28
V5.9
p5555
sg30
V0.0
p5556
ssg32
(lp5557
sg34
I0
sg35
I00
sg36
(lp5558
g75
asg39
F1.6
sg40
F2.4
sbsS'Robert Griffin III - WAS'
p5559
g2
(g3
g4
Ntp5560
Rp5561
(dp5562
g8
S'Robert Griffin III'
p5563
sg10
F2.0
sg11
I00
sg12
S'WAS'
p5564
sg14
(dp5565
g98
V2.4
p5566
sg22
V13.8
p5567
sg101
V89.6
p5568
sg20
V0.5
p5569
sg104
V635.7
p5570
sg106
V54.7
p5571
sg28
V43.5
p5572
sg30
V0.6
p5573
sg110
V3.4
p5574
sg18
V75.5
p5575
ssg32
(lp5576
sg34
I0
sg35
I00
sg36
(lp5577
g115
asg39
F1.6
sg40
F2.4
sbsS'Duke Johnson - CLE'
p5578
g2
(g3
g4
Ntp5579
Rp5580
(dp5581
g8
S'Duke Johnson'
p5582
sg10
F2.0
sg11
I00
sg12
S'CLE'
p5583
sg14
(dp5584
g16
V27.4
p5585
sg18
V399.9
p5586
sg20
V2.9
p5587
sg22
V94.6
p5588
sg24
V225.5
p5589
sg26
V0.5
p5590
sg28
V80.3
p5591
sg30
V1.2
p5592
ssg32
(lp5593
sg34
I0
sg35
I00
sg36
(lp5594
g38
asg39
F1.6
sg40
F2.4
sbsS'Matt Ryan - ATL'
p5595
g2
(g3
g4
Ntp5596
Rp5597
(dp5598
g8
S'Matt Ryan'
p5599
sg10
F2.0
sg11
I00
sg12
S'ATL'
p5600
sg14
(dp5601
g98
V15.3
p5602
sg22
V26.1
p5603
sg101
V630.1
p5604
sg20
V0.8
p5605
sg104
V4704.3
p5606
sg106
V414.3
p5607
sg28
V280.3
p5608
sg30
V3.0
p5609
sg110
V28.6
p5610
sg18
V94.4
p5611
ssg32
(lp5612
sg34
I0
sg35
I00
sg36
(lp5613
g115
asg39
F1.6
sg40
F2.4
sbsS'Ty Montgomery - GB'
p5614
g2
(g3
g4
Ntp5615
Rp5616
(dp5617
g8
S'Ty Montgomery'
p5618
sg10
F2.0
sg11
I00
sg12
S'GB'
p5619
sg14
(dp5620
g16
V35.4
p5621
sg18
V13.3
p5622
sg20
V0.0
p5623
sg22
V2.0
p5624
sg24
V482.1
p5625
sg26
V3.3
p5626
sg28
V68.1
p5627
sg30
V0.5
p5628
ssg32
(lp5629
sg34
I0
sg35
I00
sg36
(lp5630
g75
asg39
F1.6
sg40
F2.4
sbsS'Carson Palmer - ARI'
p5631
g2
(g3
g4
Ntp5632
Rp5633
(dp5634
g8
S'Carson Palmer'
p5635
sg10
F2.0
sg11
I00
sg12
S'ARI'
p5636
sg14
(dp5637
g98
V13.8
p5638
sg22
V24.2
p5639
sg101
V559.7
p5640
sg20
V0.6
p5641
sg104
V4024.1
p5642
sg106
V341.7
p5643
sg28
V233.7
p5644
sg30
V3.0
p5645
sg110
V24.0
p5646
sg18
V66.6
p5647
ssg32
(lp5648
sg34
I0
sg35
I00
sg36
(lp5649
g115
asg39
F1.6
sg40
F2.4
sbsS'MarQueis Gray - BUF'
p5650
g2
(g3
g4
Ntp5651
Rp5652
(dp5653
g8
S'MarQueis Gray'
p5654
sg10
F2.0
sg11
I00
sg12
S'BUF'
p5655
sg14
(dp5656
g16
V8.6
p5657
sg30
V0.4
p5658
sg24
V98.4
p5659
sg26
V0.6
p5660
sg28
V12.8
p5661
ssg32
(lp5662
sg34
I0
sg35
I00
sg36
(lp5663
g90
asg39
F1.6
sg40
F2.4
sbsS'Pierre Garcon - WAS'
p5664
g2
(g3
g4
Ntp5665
Rp5666
(dp5667
g8
S'Pierre Garcon'
p5668
sg10
F2.0
sg11
I00
sg12
S'WAS'
p5669
sg14
(dp5670
g16
V70.4
p5671
sg18
V0.3
p5672
sg20
V0.0
p5673
sg22
V0.1
p5674
sg24
V832.5
p5675
sg26
V3.8
p5676
sg28
V105.3
p5677
sg30
V0.4
p5678
ssg32
(lp5679
sg34
I0
sg35
I00
sg36
(lp5680
g75
asg39
F1.6
sg40
F2.4
sbsS'Jaron Brown - ARI'
p5681
g2
(g3
g4
Ntp5682
Rp5683
(dp5684
g8
S'Jaron Brown'
p5685
sg10
F2.0
sg11
I00
sg12
S'ARI'
p5686
sg14
(dp5687
g16
V12.5
p5688
sg18
V0.0
p5689
sg20
V0.0
p5690
sg22
V0.0
p5691
sg24
V186.7
p5692
sg26
V0.9
p5693
sg28
V23.7
p5694
sg30
V0.3
p5695
ssg32
(lp5696
sg34
I0
sg35
I00
sg36
(lp5697
g75
asg39
F1.6
sg40
F2.4
sbsS'Dwayne Allen - IND'
p5698
g2
(g3
g4
Ntp5699
Rp5700
(dp5701
g8
S'Dwayne Allen'
p5702
sg10
F2.0
sg11
I00
sg12
S'IND'
p5703
sg14
(dp5704
g16
V42.8
p5705
sg30
V0.3
p5706
sg24
V514.1
p5707
sg26
V7.0
p5708
sg28
V93.1
p5709
ssg32
(lp5710
sg34
I0
sg35
I00
sg36
(lp5711
g90
asg39
F1.6
sg40
F2.4
sbsS'Charcandrick West - KC'
p5712
g2
(g3
g4
Ntp5713
Rp5714
(dp5715
g8
S'Charcandrick West'
p5716
sg10
F2.0
sg11
I00
sg12
S'KC'
p5717
sg14
(dp5718
g16
V2.1
p5719
sg18
V19.2
p5720
sg20
V0.1
p5721
sg22
V5.5
p5722
sg24
V12.8
p5723
sg26
V0.0
p5724
sg28
V4.1
p5725
sg30
V0.0
p5726
ssg32
(lp5727
sg34
I0
sg35
I00
sg36
(lp5728
g38
asg39
F1.6
sg40
F2.4
sbsS'Zach Miller - CHI'
p5729
g2
(g3
g4
Ntp5730
Rp5731
(dp5732
g8
S'Zach Miller'
p5733
sg10
F2.0
sg11
I00
sg12
S'CHI'
p5734
sg14
(dp5735
g16
V3.5
p5736
sg30
V0.0
p5737
sg24
V38.2
p5738
sg26
V0.2
p5739
sg28
V5.1
p5740
ssg32
(lp5741
sg34
I0
sg35
I00
sg36
(lp5742
g90
asg39
F1.6
sg40
F2.4
sbsS'Ryan Griffin - HOU'
p5743
g2
(g3
g4
Ntp5744
Rp5745
(dp5746
g8
S'Ryan Griffin'
p5747
sg10
F2.0
sg11
I00
sg12
S'HOU'
p5748
sg14
(dp5749
g16
V5.4
p5750
sg30
V0.0
p5751
sg24
V61.6
p5752
sg26
V0.4
p5753
sg28
V8.4
p5754
ssg32
(lp5755
sg34
I0
sg35
I00
sg36
(lp5756
g90
asg39
F1.6
sg40
F2.4
sbsS'Mohamed Sanu - CIN'
p5757
g2
(g3
g4
Ntp5758
Rp5759
(dp5760
g8
S'Mohamed Sanu'
p5761
sg10
F2.0
sg11
I00
sg12
S'CIN'
p5762
sg14
(dp5763
g16
V34.6
p5764
sg18
V20.6
p5765
sg20
V0.0
p5766
sg22
V3.0
p5767
sg24
V426.1
p5768
sg26
V2.8
p5769
sg28
V60.7
p5770
sg30
V0.3
p5771
ssg32
(lp5772
sg34
I0
sg35
I00
sg36
(lp5773
g75
asg39
F1.6
sg40
F2.4
sbsS'Shaun Hill - MIN'
p5774
g2
(g3
g4
Ntp5775
Rp5776
(dp5777
g8
S'Shaun Hill'
p5778
sg10
F2.0
sg11
I00
sg12
S'MIN'
p5779
sg14
(dp5780
g98
V0.6
p5781
sg22
V0.9
p5782
sg101
V21.4
p5783
sg20
V0.1
p5784
sg104
V148.2
p5785
sg106
V12.8
p5786
sg28
V7.6
p5787
sg30
V0.2
p5788
sg110
V0.7
p5789
sg18
V1.7
p5790
ssg32
(lp5791
sg34
I0
sg35
I00
sg36
(lp5792
g115
asg39
F1.6
sg40
F2.4
sbsS'Danny Amendola - NE'
p5793
g2
(g3
g4
Ntp5794
Rp5795
(dp5796
g8
S'Danny Amendola'
p5797
sg10
F2.0
sg11
I00
sg12
S'NE'
p5798
sg14
(dp5799
g16
V43.9
p5800
sg18
V0.1
p5801
sg20
V0.0
p5802
sg22
V0.1
p5803
sg24
V452.8
p5804
sg26
V2.9
p5805
sg28
V62.0
p5806
sg30
V0.2
p5807
ssg32
(lp5808
sg34
I0
sg35
I00
sg36
(lp5809
g75
asg39
F1.6
sg40
F2.4
sbsS'Michael Vick - PIT'
p5810
g2
(g3
g4
Ntp5811
Rp5812
(dp5813
g8
S'Michael Vick'
p5814
sg10
F2.0
sg11
I00
sg12
S'PIT'
p5815
sg14
(dp5816
g98
V0.3
p5817
sg22
V3.2
p5818
sg101
V16.7
p5819
sg20
V0.0
p5820
sg104
V104.9
p5821
sg106
V9.4
p5822
sg28
V7.5
p5823
sg30
V0.3
p5824
sg110
V0.7
p5825
sg18
V14.7
p5826
ssg32
(lp5827
sg34
I0
sg35
I00
sg36
(lp5828
g115
asg39
F1.6
sg40
F2.4
sbsS'Jeremy Hill - CIN'
p5829
g2
(g3
g4
Ntp5830
Rp5831
(dp5832
g8
S'Jeremy Hill'
p5833
sg10
F2.0
sg11
I00
sg12
S'CIN'
p5834
sg14
(dp5835
g16
V29.9
p5836
sg18
V1155.5
p5837
sg20
V8.7
p5838
sg22
V250.4
p5839
sg24
V236.2
p5840
sg26
V1.1
p5841
sg28
V192.5
p5842
sg30
V2.7
p5843
ssg32
(lp5844
sg34
I0
sg35
I00
sg36
(lp5845
g38
asg39
F1.6
sg40
F2.4
sbsS'Devante Parker - MIA'
p5846
g2
(g3
g4
Ntp5847
Rp5848
(dp5849
g8
S'Devante Parker'
p5850
sg10
F2.0
sg11
I00
sg12
S'MIA'
p5851
sg14
(dp5852
g16
V43.6
p5853
sg18
V0.0
p5854
sg20
V0.0
p5855
sg22
V0.0
p5856
sg24
V575.8
p5857
sg26
V3.6
p5858
sg28
V77.8
p5859
sg30
V0.6
p5860
ssg32
(lp5861
sg34
I0
sg35
I00
sg36
(lp5862
g75
asg39
F1.6
sg40
F2.4
sbsS'Michael Burton - DET'
p5863
g2
(g3
g4
Ntp5864
Rp5865
(dp5866
g8
S'Michael Burton'
p5867
sg10
F2.0
sg11
I00
sg12
S'DET'
p5868
sg14
(dp5869
g16
V9.2
p5870
sg18
V91.8
p5871
sg20
V0.4
p5872
sg22
V24.3
p5873
sg24
V72.8
p5874
sg26
V0.1
p5875
sg28
V19.2
p5876
sg30
V0.0
p5877
ssg32
(lp5878
sg34
I0
sg35
I00
sg36
(lp5879
g38
asg39
F1.6
sg40
F2.4
sbsS'Anquan Boldin - SF'
p5880
g2
(g3
g4
Ntp5881
Rp5882
(dp5883
g8
S'Anquan Boldin'
p5884
sg10
F2.0
sg11
I00
sg12
S'SF'
p5885
sg14
(dp5886
g16
V71.8
p5887
sg18
V0.8
p5888
sg20
V0.0
p5889
sg22
V0.2
p5890
sg24
V932.4
p5891
sg26
V4.5
p5892
sg28
V119.5
p5893
sg30
V0.4
p5894
ssg32
(lp5895
sg34
I0
sg35
I00
sg36
(lp5896
g75
asg39
F1.6
sg40
F2.4
sbsS'Mike Evans - TB'
p5897
g2
(g3
g4
Ntp5898
Rp5899
(dp5900
g8
S'Mike Evans'
p5901
sg10
F2.0
sg11
I00
sg12
S'TB'
p5902
sg14
(dp5903
g16
V77.7
p5904
sg18
V0.0
p5905
sg20
V0.0
p5906
sg22
V0.0
p5907
sg24
V1144.9
p5908
sg26
V8.6
p5909
sg28
V165.4
p5910
sg30
V0.4
p5911
ssg32
(lp5912
sg34
I0
sg35
I00
sg36
(lp5913
g75
asg39
F1.6
sg40
F2.4
sbsS'Taiwan Jones - OAK'
p5914
g2
(g3
g4
Ntp5915
Rp5916
(dp5917
g8
S'Taiwan Jones'
p5918
sg10
F2.0
sg11
I00
sg12
S'OAK'
p5919
sg14
(dp5920
g16
V4.3
p5921
sg18
V35.2
p5922
sg20
V0.2
p5923
sg22
V9.1
p5924
sg24
V35.7
p5925
sg26
V0.1
p5926
sg28
V9.3
p5927
sg30
V0.0
p5928
ssg32
(lp5929
sg34
I0
sg35
I00
sg36
(lp5930
g38
asg39
F1.6
sg40
F2.4
sbsS'Daniel Herron - IND'
p5931
g2
(g3
g4
Ntp5932
Rp5933
(dp5934
g8
S'Daniel Herron'
p5935
sg10
F2.0
sg11
I00
sg12
S'IND'
p5936
sg14
(dp5937
g16
V26.5
p5938
sg18
V341.6
p5939
sg20
V2.5
p5940
sg22
V80.0
p5941
sg24
V209.6
p5942
sg26
V0.6
p5943
sg28
V68.5
p5944
sg30
V2.5
p5945
ssg32
(lp5946
sg34
I0
sg35
I00
sg36
(lp5947
g38
asg39
F1.6
sg40
F2.4
sbsS'Chris Polk - HOU'
p5948
g2
(g3
g4
Ntp5949
Rp5950
(dp5951
g8
S'Chris Polk'
p5952
sg10
F2.0
sg11
I00
sg12
S'HOU'
p5953
sg14
(dp5954
g16
V5.8
p5955
sg18
V160.2
p5956
sg20
V1.1
p5957
sg22
V36.3
p5958
sg24
V48.4
p5959
sg26
V0.2
p5960
sg28
V27.7
p5961
sg30
V0.4
p5962
ssg32
(lp5963
sg34
I0
sg35
I00
sg36
(lp5964
g38
asg39
F1.6
sg40
F2.4
sbsS'Ben Roethlisberger - PIT'
p5965
g2
(g3
g4
Ntp5966
Rp5967
(dp5968
g8
S'Ben Roethlisberger'
p5969
sg10
F2.0
sg11
I00
sg12
S'PIT'
p5970
sg14
(dp5971
g98
V13.5
p5972
sg22
V26.7
p5973
sg101
V597.0
p5974
sg20
V0.4
p5975
sg104
V4549.2
p5976
sg106
V387.5
p5977
sg28
V270.7
p5978
sg30
V3.6
p5979
sg110
V28.7
p5980
sg18
V60.5
p5981
ssg32
(lp5982
sg34
I0
sg35
I00
sg36
(lp5983
g115
asg39
F1.6
sg40
F2.4
sbsS'Donte Moncrief - IND'
p5984
g2
(g3
g4
Ntp5985
Rp5986
(dp5987
g8
S'Donte Moncrief'
p5988
sg10
F2.0
sg11
I00
sg12
S'IND'
p5989
sg14
(dp5990
g16
V29.4
p5991
sg18
V12.6
p5992
sg20
V0.0
p5993
sg22
V2.1
p5994
sg24
V402.8
p5995
sg26
V2.7
p5996
sg28
V57.4
p5997
sg30
V0.3
p5998
ssg32
(lp5999
sg34
I0
sg35
I00
sg36
(lp6000
g75
asg39
F1.6
sg40
F2.4
sbsS'Trey Watts - STL'
p6001
g2
(g3
g4
Ntp6002
Rp6003
(dp6004
g8
S'Trey Watts'
p6005
sg10
F2.0
sg11
I00
sg12
S'STL'
p6006
sg14
(dp6007
g16
V3.9
p6008
sg18
V24.2
p6009
sg20
V0.1
p6010
sg22
V5.8
p6011
sg24
V33.1
p6012
sg26
V0.1
p6013
sg28
V6.9
p6014
sg30
V0.0
p6015
ssg32
(lp6016
sg34
I0
sg35
I00
sg36
(lp6017
g38
asg39
F1.6
sg40
F2.4
sbsS'Ray - Rice'
p6018
g2
(g3
g4
Ntp6019
Rp6020
(dp6021
g8
S'Ray'
p6022
sg10
F2.0
sg11
I00
sg12
S'Rice'
p6023
sg14
(dp6024
g16
V14.0
p6025
sg18
V275.0
p6026
sg20
V2.0
p6027
sg22
V67.0
p6028
sg24
V100.0
p6029
sg26
V0.0
p6030
sg28
V49.5
p6031
sg30
V0.0
p6032
ssg32
(lp6033
sg34
I0
sg35
I00
sg36
(lp6034
g38
asg39
F1.6
sg40
F2.4
sbsS'Philip Rivers - SD'
p6035
g2
(g3
g4
Ntp6036
Rp6037
(dp6038
g8
S'Philip Rivers'
p6039
sg10
F2.0
sg11
I00
sg12
S'SD'
p6040
sg14
(dp6041
g98
V16.2
p6042
sg22
V34.4
p6043
sg101
V569.4
p6044
sg20
V0.4
p6045
sg104
V4332.5
p6046
sg106
V369.2
p6047
sg28
V259.1
p6048
sg30
V2.8
p6049
sg110
V28.5
p6050
sg18
V72.8
p6051
ssg32
(lp6052
sg34
I0
sg35
I00
sg36
(lp6053
g115
asg39
F1.6
sg40
F2.4
sbsS'Ronnie Hillman - DEN'
p6054
g2
(g3
g4
Ntp6055
Rp6056
(dp6057
g8
S'Ronnie Hillman'
p6058
sg10
F2.0
sg11
I00
sg12
S'DEN'
p6059
sg14
(dp6060
g16
V18.3
p6061
sg18
V353.8
p6062
sg20
V2.7
p6063
sg22
V84.1
p6064
sg24
V141.2
p6065
sg26
V0.8
p6066
sg28
V68.5
p6067
sg30
V1.1
p6068
ssg32
(lp6069
sg34
I0
sg35
I00
sg36
(lp6070
g38
asg39
F1.6
sg40
F2.4
sbsS'Reggie Bush - SF'
p6071
g2
(g3
g4
Ntp6072
Rp6073
(dp6074
g8
S'Reggie Bush'
p6075
sg10
F2.0
sg11
I00
sg12
S'SF'
p6076
sg14
(dp6077
g16
V37.5
p6078
sg18
V399.3
p6079
sg20
V1.8
p6080
sg22
V91.2
p6081
sg24
V289.5
p6082
sg26
V0.8
p6083
sg28
V81.7
p6084
sg30
V1.5
p6085
ssg32
(lp6086
sg34
I0
sg35
I00
sg36
(lp6087
g38
asg39
F1.6
sg40
F2.4
sbsS'Phillip Dorsett - IND'
p6088
g2
(g3
g4
Ntp6089
Rp6090
(dp6091
g8
S'Phillip Dorsett'
p6092
sg10
F2.0
sg11
I00
sg12
S'IND'
p6093
sg14
(dp6094
g16
V27.1
p6095
sg18
V8.7
p6096
sg20
V0.0
p6097
sg22
V1.3
p6098
sg24
V368.6
p6099
sg26
V2.4
p6100
sg28
V50.8
p6101
sg30
V0.6
p6102
ssg32
(lp6103
sg34
I0
sg35
I00
sg36
(lp6104
g75
asg39
F1.6
sg40
F2.4
sbsS'Orson - Charles'
p6105
g2
(g3
g4
Ntp6106
Rp6107
(dp6108
g8
S'Orson'
p6109
sg10
F2.0
sg11
I00
sg12
S'Charles'
p6110
sg14
(dp6111
g16
V1.2
p6112
sg30
V0.0
p6113
sg24
V11.3
p6114
sg26
V0.1
p6115
sg28
V1.7
p6116
ssg32
(lp6117
sg34
I0
sg35
I00
sg36
(lp6118
g90
asg39
F1.6
sg40
F2.4
sbsS'Jerricho Cotchery - CAR'
p6119
g2
(g3
g4
Ntp6120
Rp6121
(dp6122
g8
S'Jerricho Cotchery'
p6123
sg10
F2.0
sg11
I00
sg12
S'CAR'
p6124
sg14
(dp6125
g16
V48.1
p6126
sg18
V1.6
p6127
sg20
V0.0
p6128
sg22
V0.0
p6129
sg24
V591.4
p6130
sg26
V3.2
p6131
sg28
V77.8
p6132
sg30
V0.4
p6133
ssg32
(lp6134
sg34
I0
sg35
I00
sg36
(lp6135
g75
asg39
F1.6
sg40
F2.4
sbsS'Julian Edelman - NE'
p6136
g2
(g3
g4
Ntp6137
Rp6138
(dp6139
g8
S'Julian Edelman'
p6140
sg10
F2.0
sg11
I00
sg12
S'NE'
p6141
sg14
(dp6142
g16
V96.3
p6143
sg18
V52.2
p6144
sg20
V0.0
p6145
sg22
V6.6
p6146
sg24
V1013.8
p6147
sg26
V6.2
p6148
sg28
V143.6
p6149
sg30
V0.2
p6150
ssg32
(lp6151
sg34
I0
sg35
I00
sg36
(lp6152
g75
asg39
F1.6
sg40
F2.4
sbsS'John - Conner'
p6153
g2
(g3
g4
Ntp6154
Rp6155
(dp6156
g8
S'John'
p6157
sg10
F2.0
sg11
I00
sg12
S'Conner'
p6158
sg14
(dp6159
g16
V0.9
p6160
sg18
V3.4
p6161
sg20
V0.0
p6162
sg22
V1.0
p6163
sg24
V10.4
p6164
sg26
V0.3
p6165
sg28
V3.2
p6166
sg30
V0.0
p6167
ssg32
(lp6168
sg34
I0
sg35
I00
sg36
(lp6169
g38
asg39
F1.6
sg40
F2.4
sbsS'Henry - Hynoski'
p6170
g2
(g3
g4
Ntp6171
Rp6172
(dp6173
g8
S'Henry'
p6174
sg10
F2.0
sg11
I00
sg12
S'Hynoski'
p6175
sg14
(dp6176
g16
V3.7
p6177
sg18
V56.0
p6178
sg20
V0.2
p6179
sg22
V22.5
p6180
sg24
V29.5
p6181
sg26
V0.1
p6182
sg28
V10.2
p6183
sg30
V0.1
p6184
ssg32
(lp6185
sg34
I0
sg35
I00
sg36
(lp6186
g38
asg39
F1.6
sg40
F2.4
sbsS'James White - NE'
p6187
g2
(g3
g4
Ntp6188
Rp6189
(dp6190
g8
S'James White'
p6191
sg10
F2.0
sg11
I00
sg12
S'NE'
p6192
sg14
(dp6193
g16
V21.0
p6194
sg18
V167.0
p6195
sg20
V0.7
p6196
sg22
V41.2
p6197
sg24
V156.5
p6198
sg26
V0.9
p6199
sg28
V41.5
p6200
sg30
V0.2
p6201
ssg32
(lp6202
sg34
I0
sg35
I00
sg36
(lp6203
g38
asg39
F1.6
sg40
F2.4
sbsS"De'Anthony Thomas - KC"
p6204
g2
(g3
g4
Ntp6205
Rp6206
(dp6207
g8
S"De'Anthony Thomas"
p6208
sg10
F2.0
sg11
I00
sg12
S'KC'
p6209
sg14
(dp6210
g16
V27.4
p6211
sg18
V92.0
p6212
sg20
V0.0
p6213
sg22
V15.0
p6214
sg24
V236.0
p6215
sg26
V1.8
p6216
sg28
V42.7
p6217
sg30
V0.3
p6218
ssg32
(lp6219
sg34
I0
sg35
I00
sg36
(lp6220
g38
ag75
asg39
F1.6
sg40
F2.4
sbsS'Tevin Coleman - ATL'
p6221
g2
(g3
g4
Ntp6222
Rp6223
(dp6224
g8
S'Tevin Coleman'
p6225
sg10
F2.0
sg11
I00
sg12
S'ATL'
p6226
sg14
(dp6227
g16
V29.2
p6228
sg18
V650.7
p6229
sg20
V5.1
p6230
sg22
V157.6
p6231
sg24
V219.3
p6232
sg26
V0.9
p6233
sg28
V120.2
p6234
sg30
V1.4
p6235
ssg32
(lp6236
sg34
I0
sg35
I00
sg36
(lp6237
g38
asg39
F1.6
sg40
F2.4
sbsS'Jordan Thompson - DET'
p6238
g2
(g3
g4
Ntp6239
Rp6240
(dp6241
g8
S'Jordan Thompson'
p6242
sg10
F2.0
sg11
I00
sg12
S'DET'
p6243
sg14
(dp6244
g16
V4.1
p6245
sg30
V0.0
p6246
sg24
V37.6
p6247
sg26
V0.2
p6248
sg28
V4.9
p6249
ssg32
(lp6250
sg34
I0
sg35
I00
sg36
(lp6251
g90
asg39
F1.6
sg40
F2.4
sbsS'Tim Hightower - NO'
p6252
g2
(g3
g4
Ntp6253
Rp6254
(dp6255
g8
S'Tim Hightower'
p6256
sg10
F2.0
sg11
I00
sg12
S'NO'
p6257
sg14
(dp6258
g16
V3.1
p6259
sg18
V30.2
p6260
sg20
V0.2
p6261
sg22
V8.1
p6262
sg24
V22.5
p6263
sg26
V0.1
p6264
sg28
V6.8
p6265
sg30
V0.0
p6266
ssg32
(lp6267
sg34
I0
sg35
I00
sg36
(lp6268
g38
asg39
F1.6
sg40
F2.4
sbsS'Kyle Juszczyk - BAL'
p6269
g2
(g3
g4
Ntp6270
Rp6271
(dp6272
g8
S'Kyle Juszczyk'
p6273
sg10
F2.0
sg11
I00
sg12
S'BAL'
p6274
sg14
(dp6275
g16
V19.4
p6276
sg18
V2.7
p6277
sg20
V0.0
p6278
sg22
V1.1
p6279
sg24
V140.8
p6280
sg26
V0.4
p6281
sg28
V10.4
p6282
sg30
V3.1
p6283
ssg32
(lp6284
sg34
I0
sg35
I00
sg36
(lp6285
g38
asg39
F1.6
sg40
F2.4
sbsS'Darren Sproles - PHI'
p6286
g2
(g3
g4
Ntp6287
Rp6288
(dp6289
g8
S'Darren Sproles'
p6290
sg10
F2.0
sg11
I00
sg12
S'PHI'
p6291
sg14
(dp6292
g16
V43.8
p6293
sg18
V226.1
p6294
sg20
V2.1
p6295
sg22
V49.4
p6296
sg24
V391.1
p6297
sg26
V1.1
p6298
sg28
V77.1
p6299
sg30
V1.9
p6300
ssg32
(lp6301
sg34
I0
sg35
I00
sg36
(lp6302
g38
asg39
F1.6
sg40
F2.4
sbsS'Seyi Ajirotutu - PHI'
p6303
g2
(g3
g4
Ntp6304
Rp6305
(dp6306
g8
S'Seyi Ajirotutu'
p6307
sg10
F2.0
sg11
I00
sg12
S'PHI'
p6308
sg14
(dp6309
g16
V3.9
p6310
sg18
V0.0
p6311
sg20
V0.0
p6312
sg22
V0.0
p6313
sg24
V44.2
p6314
sg26
V0.2
p6315
sg28
V5.4
p6316
sg30
V0.0
p6317
ssg32
(lp6318
sg34
I0
sg35
I00
sg36
(lp6319
g75
asg39
F1.6
sg40
F2.4
sbsS'T.J. - Yates'
p6320
g2
(g3
g4
Ntp6321
Rp6322
(dp6323
g8
S'T.J.'
p6324
sg10
F2.0
sg11
I00
sg12
S'Yates'
p6325
sg14
(dp6326
g98
V0.1
p6327
sg22
V0.6
p6328
sg101
V2.2
p6329
sg20
V0.0
p6330
sg104
V16.1
p6331
sg106
V1.5
p6332
sg28
V0.7
p6333
sg30
V0.0
p6334
sg110
V0.0
p6335
sg18
V1.3
p6336
ssg32
(lp6337
sg34
I0
sg35
I00
sg36
(lp6338
g115
asg39
F1.6
sg40
F2.4
sbsS'Lance Dunbar - DAL'
p6339
g2
(g3
g4
Ntp6340
Rp6341
(dp6342
g8
S'Lance Dunbar'
p6343
sg10
F2.0
sg11
I00
sg12
S'DAL'
p6344
sg14
(dp6345
g16
V25.8
p6346
sg18
V291.2
p6347
sg20
V1.3
p6348
sg22
V70.0
p6349
sg24
V242.3
p6350
sg26
V0.9
p6351
sg28
V63.5
p6352
sg30
V1.5
p6353
ssg32
(lp6354
sg34
I0
sg35
I00
sg36
(lp6355
g38
asg39
F1.6
sg40
F2.4
sbsS'Hakeem - Nicks'
p6356
g2
(g3
g4
Ntp6357
Rp6358
(dp6359
g8
S'Hakeem'
p6360
sg10
F2.0
sg11
I00
sg12
S'Nicks'
p6361
sg14
(dp6362
g16
V18.0
p6363
sg18
V0.0
p6364
sg20
V0.0
p6365
sg22
V0.0
p6366
sg24
V249.0
p6367
sg26
V1.0
p6368
sg28
V30.9
p6369
sg30
V0.0
p6370
ssg32
(lp6371
sg34
I0
sg35
I00
sg36
(lp6372
g75
asg39
F1.6
sg40
F2.4
sbsS'Mike Wallace - MIN'
p6373
g2
(g3
g4
Ntp6374
Rp6375
(dp6376
g8
S'Mike Wallace'
p6377
sg10
F2.0
sg11
I00
sg12
S'MIN'
p6378
sg14
(dp6379
g16
V60.2
p6380
sg18
V10.2
p6381
sg20
V0.0
p6382
sg22
V1.2
p6383
sg24
V867.6
p6384
sg26
V5.8
p6385
sg28
V121.1
p6386
sg30
V0.7
p6387
ssg32
(lp6388
sg34
I0
sg35
I00
sg36
(lp6389
g75
asg39
F1.6
sg40
F2.4
sbsS'Giovani Bernard - CIN'
p6390
g2
(g3
g4
Ntp6391
Rp6392
(dp6393
g8
S'Giovani Bernard'
p6394
sg10
F2.0
sg11
I00
sg12
S'CIN'
p6395
sg14
(dp6396
g16
V48.7
p6397
sg18
V560.3
p6398
sg20
V3.9
p6399
sg22
V135.1
p6400
sg24
V385.8
p6401
sg26
V1.8
p6402
sg28
V126.3
p6403
sg30
V1.3
p6404
ssg32
(lp6405
sg34
I0
sg35
I00
sg36
(lp6406
g38
asg39
F1.6
sg40
F2.4
sbsS'Daniel Fells - NYG'
p6407
g2
(g3
g4
Ntp6408
Rp6409
(dp6410
g8
S'Daniel Fells'
p6411
sg10
F2.0
sg11
I00
sg12
S'NYG'
p6412
sg14
(dp6413
g16
V18.2
p6414
sg30
V2.0
p6415
sg24
V203.4
p6416
sg26
V2.2
p6417
sg28
V29.6
p6418
ssg32
(lp6419
sg34
I0
sg35
I00
sg36
(lp6420
g90
asg39
F1.6
sg40
F2.4
sbsS'Matt Forte - CHI'
p6421
g2
(g3
g4
Ntp6422
Rp6423
(dp6424
g8
S'Matt Forte'
p6425
sg10
F2.0
sg11
I00
sg12
S'CHI'
p6426
sg14
(dp6427
g16
V70.4
p6428
sg18
V1070.4
p6429
sg20
V6.8
p6430
sg22
V254.9
p6431
sg24
V571.5
p6432
sg26
V2.4
p6433
sg28
V214.4
p6434
sg30
V2.5
p6435
ssg32
(lp6436
sg34
I0
sg35
I00
sg36
(lp6437
g38
asg39
F1.6
sg40
F2.4
sbsS'Taylor Gabriel - CLE'
p6438
g2
(g3
g4
Ntp6439
Rp6440
(dp6441
g8
S'Taylor Gabriel'
p6442
sg10
F2.0
sg11
I00
sg12
S'CLE'
p6443
sg14
(dp6444
g16
V29.6
p6445
sg18
V9.4
p6446
sg20
V0.0
p6447
sg22
V0.9
p6448
sg24
V441.3
p6449
sg26
V2.1
p6450
sg28
V57.2
p6451
sg30
V0.2
p6452
ssg32
(lp6453
sg34
I0
sg35
I00
sg36
(lp6454
g75
asg39
F1.6
sg40
F2.4
sbsS'Darren Waller - BAL'
p6455
g2
(g3
g4
Ntp6456
Rp6457
(dp6458
g8
S'Darren Waller'
p6459
sg10
F2.0
sg11
I00
sg12
S'BAL'
p6460
sg14
(dp6461
g16
V5.6
p6462
sg18
V0.0
p6463
sg20
V0.0
p6464
sg22
V0.0
p6465
sg24
V70.9
p6466
sg26
V0.4
p6467
sg28
V9.7
p6468
sg30
V0.0
p6469
ssg32
(lp6470
sg34
I0
sg35
I00
sg36
(lp6471
g75
asg39
F1.6
sg40
F2.4
sbsS'Khiry Robinson - NO'
p6472
g2
(g3
g4
Ntp6473
Rp6474
(dp6475
g8
S'Khiry Robinson'
p6476
sg10
F2.0
sg11
I00
sg12
S'NO'
p6477
sg14
(dp6478
g16
V7.0
p6479
sg18
V152.2
p6480
sg20
V1.3
p6481
sg22
V34.4
p6482
sg24
V59.1
p6483
sg26
V0.2
p6484
sg28
V29.7
p6485
sg30
V0.3
p6486
ssg32
(lp6487
sg34
I0
sg35
I00
sg36
(lp6488
g38
asg39
F1.6
sg40
F2.4
sbsS'Matt Hasselbeck - IND'
p6489
g2
(g3
g4
Ntp6490
Rp6491
(dp6492
g8
S'Matt Hasselbeck'
p6493
sg10
F2.0
sg11
I00
sg12
S'IND'
p6494
sg14
(dp6495
g98
V0.1
p6496
sg22
V1.0
p6497
sg101
V10.6
p6498
sg20
V0.0
p6499
sg104
V78.9
p6500
sg106
V6.8
p6501
sg28
V3.6
p6502
sg30
V0.2
p6503
sg110
V0.3
p6504
sg18
V0.3
p6505
ssg32
(lp6506
sg34
I0
sg35
I00
sg36
(lp6507
g115
asg39
F1.6
sg40
F2.4
sbsS'Trent - Richardson'
p6508
g2
(g3
g4
Ntp6509
Rp6510
(dp6511
g8
S'Trent'
p6512
sg10
F2.0
sg11
I00
sg12
S'Richardson'
p6513
sg14
(dp6514
g16
V0.0
p6515
sg18
V0.0
p6516
sg20
V0.0
p6517
sg22
V0.0
p6518
sg24
V0.0
p6519
sg26
V0.0
p6520
sg28
V0.0
p6521
sg30
V0.0
p6522
ssg32
(lp6523
sg34
I0
sg35
I00
sg36
(lp6524
g38
asg39
F1.6
sg40
F2.4
sbsS'Jacob Tamme - ATL'
p6525
g2
(g3
g4
Ntp6526
Rp6527
(dp6528
g8
S'Jacob Tamme'
p6529
sg10
F2.0
sg11
I00
sg12
S'ATL'
p6530
sg14
(dp6531
g16
V36.6
p6532
sg30
V1.4
p6533
sg24
V365.7
p6534
sg26
V2.4
p6535
sg28
V48.1
p6536
ssg32
(lp6537
sg34
I0
sg35
I00
sg36
(lp6538
g90
asg39
F1.6
sg40
F2.4
sbsS'Garrett Grayson - NO'
p6539
g2
(g3
g4
Ntp6540
Rp6541
(dp6542
g8
S'Garrett Grayson'
p6543
sg10
F2.0
sg11
I00
sg12
S'NO'
p6544
sg14
(dp6545
g98
V0.0
p6546
sg22
V0.0
p6547
sg101
V0.0
p6548
sg20
V0.0
p6549
sg104
V0.0
p6550
sg106
V0.0
p6551
sg28
V0.0
p6552
sg30
V0.0
p6553
sg110
V0.0
p6554
sg18
V0.0
p6555
ssg32
(lp6556
sg34
I0
sg35
I00
sg36
(lp6557
g115
asg39
F1.6
sg40
F2.4
sbsS'C.J. Spiller - NO'
p6558
g2
(g3
g4
Ntp6559
Rp6560
(dp6561
g8
S'C.J. Spiller'
p6562
sg10
F2.0
sg11
I00
sg12
S'NO'
p6563
sg14
(dp6564
g16
V59.3
p6565
sg18
V477.1
p6566
sg20
V2.6
p6567
sg22
V111.0
p6568
sg24
V452.9
p6569
sg26
V2.9
p6570
sg28
V121.4
p6571
sg30
V2.2
p6572
ssg32
(lp6573
sg34
I0
sg35
I00
sg36
(lp6574
g38
asg39
F1.6
sg40
F2.4
sbsS"James O'Shaughnessy - KC"
p6575
g2
(g3
g4
Ntp6576
Rp6577
(dp6578
g8
S"James O'Shaughnessy"
p6579
sg10
F2.0
sg11
I00
sg12
S'KC'
p6580
sg14
(dp6581
g16
V28.9
p6582
sg30
V0.5
p6583
sg24
V259.0
p6584
sg26
V2.1
p6585
sg28
V37.5
p6586
ssg32
(lp6587
sg34
I0
sg35
I00
sg36
(lp6588
g90
asg39
F1.6
sg40
F2.4
sbsS'Greg Olsen - CAR'
p6589
g2
(g3
g4
Ntp6590
Rp6591
(dp6592
g8
S'Greg Olsen'
p6593
sg10
F2.0
sg11
I00
sg12
S'CAR'
p6594
sg14
(dp6595
g16
V78.2
p6596
sg30
V0.4
p6597
sg24
V928.7
p6598
sg26
V5.7
p6599
sg28
V126.0
p6600
ssg32
(lp6601
sg34
I0
sg35
I00
sg36
(lp6602
g90
asg39
F1.6
sg40
F2.4
sbsS'Jamaal Charles - KC'
p6603
g2
(g3
g4
Ntp6604
Rp6605
(dp6606
g8
S'Jamaal Charles'
p6607
sg10
F2.0
sg11
I00
sg12
S'KC'
p6608
sg14
(dp6609
g16
V52.0
p6610
sg18
V1136.4
p6611
sg20
V9.5
p6612
sg22
V234.1
p6613
sg24
V432.5
p6614
sg26
V4.8
p6615
sg28
V237.4
p6616
sg30
V2.6
p6617
ssg32
(lp6618
sg34
I0
sg35
I00
sg36
(lp6619
g38
asg39
F1.6
sg40
F2.4
sbsS'Stepfan Taylor - ARI'
p6620
g2
(g3
g4
Ntp6621
Rp6622
(dp6623
g8
S'Stepfan Taylor'
p6624
sg10
F2.0
sg11
I00
sg12
S'ARI'
p6625
sg14
(dp6626
g16
V7.9
p6627
sg18
V104.6
p6628
sg20
V0.2
p6629
sg22
V28.1
p6630
sg24
V64.2
p6631
sg26
V0.1
p6632
sg28
V18.8
p6633
sg30
V0.0
p6634
ssg32
(lp6635
sg34
I0
sg35
I00
sg36
(lp6636
g38
asg39
F1.6
sg40
F2.4
sbsS'Julius Thomas - JAC'
p6637
g2
(g3
g4
Ntp6638
Rp6639
(dp6640
g8
S'Julius Thomas'
p6641
sg10
F2.0
sg11
I00
sg12
S'JAC'
p6642
sg14
(dp6643
g16
V48.6
p6644
sg30
V0.4
p6645
sg24
V547.2
p6646
sg26
V4.4
p6647
sg28
V80.6
p6648
ssg32
(lp6649
sg34
I0
sg35
I00
sg36
(lp6650
g90
asg39
F1.6
sg40
F2.4
sbsS'Travis Kelce - KC'
p6651
g2
(g3
g4
Ntp6652
Rp6653
(dp6654
g8
S'Travis Kelce'
p6655
sg10
F2.0
sg11
I00
sg12
S'KC'
p6656
sg14
(dp6657
g16
V72.4
p6658
sg30
V2.4
p6659
sg24
V853.1
p6660
sg26
V6.1
p6661
sg28
V117.3
p6662
ssg32
(lp6663
sg34
I0
sg35
I00
sg36
(lp6664
g90
asg39
F1.6
sg40
F2.4
sbsS'Rashad Greene - JAC'
p6665
g2
(g3
g4
Ntp6666
Rp6667
(dp6668
g8
S'Rashad Greene'
p6669
sg10
F2.0
sg11
I00
sg12
S'JAC'
p6670
sg14
(dp6671
g16
V5.0
p6672
sg18
V0.0
p6673
sg20
V0.0
p6674
sg22
V0.0
p6675
sg24
V77.0
p6676
sg26
V0.0
p6677
sg28
V7.7
p6678
sg30
V0.0
p6679
ssg32
(lp6680
sg34
I0
sg35
I00
sg36
(lp6681
g75
asg39
F1.6
sg40
F2.4
sbsS'Jerome Simpson - SF'
p6682
g2
(g3
g4
Ntp6683
Rp6684
(dp6685
g8
S'Jerome Simpson'
p6686
sg10
F2.0
sg11
I00
sg12
S'SF'
p6687
sg14
(dp6688
g16
V8.8
p6689
sg18
V0.0
p6690
sg20
V0.0
p6691
sg22
V0.0
p6692
sg24
V120.2
p6693
sg26
V0.5
p6694
sg28
V15.2
p6695
sg30
V0.0
p6696
ssg32
(lp6697
sg34
I0
sg35
I00
sg36
(lp6698
g75
asg39
F1.6
sg40
F2.4
sbsS'Kris - Durham'
p6699
g2
(g3
g4
Ntp6700
Rp6701
(dp6702
g8
S'Kris'
p6703
sg10
F2.0
sg11
I00
sg12
S'Durham'
p6704
sg14
(dp6705
g16
V5.2
p6706
sg18
V0.0
p6707
sg20
V0.0
p6708
sg22
V0.0
p6709
sg24
V49.5
p6710
sg26
V0.0
p6711
sg28
V5.0
p6712
sg30
V0.0
p6713
ssg32
(lp6714
sg34
I0
sg35
I00
sg36
(lp6715
g75
asg39
F1.6
sg40
F2.4
sbsS'Doug Baldwin - SEA'
p6716
g2
(g3
g4
Ntp6717
Rp6718
(dp6719
g8
S'Doug Baldwin'
p6720
sg10
F2.0
sg11
I00
sg12
S'SEA'
p6721
sg14
(dp6722
g16
V57.7
p6723
sg18
V6.4
p6724
sg20
V0.0
p6725
sg22
V1.0
p6726
sg24
V762.4
p6727
sg26
V5.1
p6728
sg28
V105.8
p6729
sg30
V1.0
p6730
ssg32
(lp6731
sg34
I0
sg35
I00
sg36
(lp6732
g75
asg39
F1.6
sg40
F2.4
sbsS'Kellen Davis - NYJ'
p6733
g2
(g3
g4
Ntp6734
Rp6735
(dp6736
g8
S'Kellen Davis'
p6737
sg10
F2.0
sg11
I00
sg12
S'NYJ'
p6738
sg14
(dp6739
g16
V16.2
p6740
sg30
V0.4
p6741
sg24
V165.3
p6742
sg26
V1.1
p6743
sg28
V22.5
p6744
ssg32
(lp6745
sg34
I0
sg35
I00
sg36
(lp6746
g90
asg39
F1.6
sg40
F2.4
sbsS'Joe Webb - CAR'
p6747
g2
(g3
g4
Ntp6748
Rp6749
(dp6750
g8
S'Joe Webb'
p6751
sg10
F2.0
sg11
I00
sg12
S'CAR'
p6752
sg14
(dp6753
g98
V0.0
p6754
sg22
V0.0
p6755
sg101
V0.0
p6756
sg20
V0.0
p6757
sg104
V0.0
p6758
sg106
V0.0
p6759
sg28
V0.0
p6760
sg30
V0.0
p6761
sg110
V0.0
p6762
sg18
V0.0
p6763
ssg32
(lp6764
sg34
I0
sg35
I00
sg36
(lp6765
g115
asg39
F1.6
sg40
F2.4
sbsS'Matt Asiata - MIN'
p6766
g2
(g3
g4
Ntp6767
Rp6768
(dp6769
g8
S'Matt Asiata'
p6770
sg10
F2.0
sg11
I00
sg12
S'MIN'
p6771
sg14
(dp6772
g16
V10.9
p6773
sg18
V76.2
p6774
sg20
V0.7
p6775
sg22
V17.4
p6776
sg24
V81.6
p6777
sg26
V0.5
p6778
sg28
V22.5
p6779
sg30
V0.2
p6780
ssg32
(lp6781
sg34
I0
sg35
I00
sg36
(lp6782
g38
asg39
F1.6
sg40
F2.4
sbsS'E.J. Manuel - BUF'
p6783
g2
(g3
g4
Ntp6784
Rp6785
(dp6786
g8
S'E.J. Manuel'
p6787
sg10
F2.0
sg11
I00
sg12
S'BUF'
p6788
sg14
(dp6789
g98
V2.4
p6790
sg22
V9.3
p6791
sg101
V76.2
p6792
sg20
V0.1
p6793
sg104
V507.0
p6794
sg106
V44.9
p6795
sg28
V31.3
p6796
sg30
V0.3
p6797
sg110
V3.1
p6798
sg18
V34.8
p6799
ssg32
(lp6800
sg34
I0
sg35
I00
sg36
(lp6801
g115
asg39
F1.6
sg40
F2.4
sbsS'Jermaine Gresham - ARI'
p6802
g2
(g3
g4
Ntp6803
Rp6804
(dp6805
g8
S'Jermaine Gresham'
p6806
sg10
F2.0
sg11
I00
sg12
S'ARI'
p6807
sg14
(dp6808
g16
V23.0
p6809
sg30
V0.8
p6810
sg24
V218.9
p6811
sg26
V1.6
p6812
sg28
V29.9
p6813
ssg32
(lp6814
sg34
I0
sg35
I00
sg36
(lp6815
g90
asg39
F1.6
sg40
F2.4
sbsS'Jimmy Graham - SEA'
p6816
g2
(g3
g4
Ntp6817
Rp6818
(dp6819
g8
S'Jimmy Graham'
p6820
sg10
F2.0
sg11
I00
sg12
S'SEA'
p6821
sg14
(dp6822
g16
V70.6
p6823
sg30
V1.3
p6824
sg24
V862.4
p6825
sg26
V8.8
p6826
sg28
V136.7
p6827
ssg32
(lp6828
sg34
I0
sg35
I00
sg36
(lp6829
g90
asg39
F1.6
sg40
F2.4
sbsS'Darrin - Reaves'
p6830
g2
(g3
g4
Ntp6831
Rp6832
(dp6833
g8
S'Darrin'
p6834
sg10
F2.0
sg11
I00
sg12
S'Reaves'
p6835
sg14
(dp6836
g16
V1.3
p6837
sg18
V35.4
p6838
sg20
V0.2
p6839
sg22
V8.4
p6840
sg24
V7.9
p6841
sg26
V0.0
p6842
sg28
V5.5
p6843
sg30
V0.0
p6844
ssg32
(lp6845
sg34
I0
sg35
I00
sg36
(lp6846
g38
asg39
F1.6
sg40
F2.4
sbsS'Michael Crabtree - OAK'
p6847
g2
(g3
g4
Ntp6848
Rp6849
(dp6850
g8
S'Michael Crabtree'
p6851
sg10
F2.0
sg11
I00
sg12
S'OAK'
p6852
sg14
(dp6853
g16
V56.3
p6854
sg18
V1.0
p6855
sg20
V0.0
p6856
sg22
V0.1
p6857
sg24
V629.4
p6858
sg26
V3.7
p6859
sg28
V84.8
p6860
sg30
V0.3
p6861
ssg32
(lp6862
sg34
I0
sg35
I00
sg36
(lp6863
g75
asg39
F1.6
sg40
F2.4
sbsS'Virgil Green - DEN'
p6864
g2
(g3
g4
Ntp6865
Rp6866
(dp6867
g8
S'Virgil Green'
p6868
sg10
F2.0
sg11
I00
sg12
S'DEN'
p6869
sg14
(dp6870
g16
V28.1
p6871
sg30
V0.3
p6872
sg24
V286.4
p6873
sg26
V2.4
p6874
sg28
V42.2
p6875
ssg32
(lp6876
sg34
I0
sg35
I00
sg36
(lp6877
g90
asg39
F1.6
sg40
F2.4
sbsS'Bruce Miller - SF'
p6878
g2
(g3
g4
Ntp6879
Rp6880
(dp6881
g8
S'Bruce Miller'
p6882
sg10
F2.0
sg11
I00
sg12
S'SF'
p6883
sg14
(dp6884
g16
V17.8
p6885
sg18
V44.1
p6886
sg20
V0.3
p6887
sg22
V15.2
p6888
sg24
V177.5
p6889
sg26
V1.2
p6890
sg28
V29.0
p6891
sg30
V1.1
p6892
ssg32
(lp6893
sg34
I0
sg35
I00
sg36
(lp6894
g38
asg39
F1.6
sg40
F2.4
sbsS'Matt Spaeth - PIT'
p6895
g2
(g3
g4
Ntp6896
Rp6897
(dp6898
g8
S'Matt Spaeth'
p6899
sg10
F2.0
sg11
I00
sg12
S'PIT'
p6900
sg14
(dp6901
g16
V21.4
p6902
sg30
V0.4
p6903
sg24
V231.8
p6904
sg26
V1.9
p6905
sg28
V34.0
p6906
ssg32
(lp6907
sg34
I0
sg35
I00
sg36
(lp6908
g90
asg39
F1.6
sg40
F2.4
sbsS'Terrelle Pryor - CLE'
p6909
g2
(g3
g4
Ntp6910
Rp6911
(dp6912
g8
S'Terrelle Pryor'
p6913
sg10
F2.0
sg11
I00
sg12
S'CLE'
p6914
sg14
(dp6915
g98
V0.0
p6916
sg22
V0.0
p6917
sg101
V0.0
p6918
sg20
V0.0
p6919
sg104
V0.0
p6920
sg106
V0.0
p6921
sg28
V0.0
p6922
sg30
V0.0
p6923
sg110
V0.0
p6924
sg18
V0.0
p6925
ssg32
(lp6926
sg34
I0
sg35
I00
sg36
(lp6927
g115
asg39
F1.6
sg40
F2.4
sbsS'Kerwynn - Williams'
p6928
g2
(g3
g4
Ntp6929
Rp6930
(dp6931
g8
S'Kerwynn'
p6932
sg10
F2.0
sg11
I00
sg12
S'Williams'
p6933
sg14
(dp6934
g16
V1.6
p6935
sg18
V29.7
p6936
sg20
V0.1
p6937
sg22
V7.6
p6938
sg24
V11.7
p6939
sg26
V0.0
p6940
sg28
V4.7
p6941
sg30
V0.0
p6942
ssg32
(lp6943
sg34
I0
sg35
I00
sg36
(lp6944
g38
asg39
F1.6
sg40
F2.4
sbsS'Eric Weems - ATL'
p6945
g2
(g3
g4
Ntp6946
Rp6947
(dp6948
g8
S'Eric Weems'
p6949
sg10
F2.0
sg11
I00
sg12
S'ATL'
p6950
sg14
(dp6951
g16
V6.7
p6952
sg18
V0.0
p6953
sg20
V0.0
p6954
sg22
V0.0
p6955
sg24
V89.7
p6956
sg26
V0.5
p6957
sg28
V11.7
p6958
sg30
V0.0
p6959
ssg32
(lp6960
sg34
I0
sg35
I00
sg36
(lp6961
g75
asg39
F1.6
sg40
F2.4
sbsS'Tim Wright - DET'
p6962
g2
(g3
g4
Ntp6963
Rp6964
(dp6965
g8
S'Tim Wright'
p6966
sg10
F2.0
sg11
I00
sg12
S'DET'
p6967
sg14
(dp6968
g16
V4.3
p6969
sg30
V0.0
p6970
sg24
V47.9
p6971
sg26
V0.2
p6972
sg28
V5.8
p6973
ssg32
(lp6974
sg34
I0
sg35
I00
sg36
(lp6975
g90
asg39
F1.6
sg40
F2.4
sbsS'Jorvorskie Lane - TB'
p6976
g2
(g3
g4
Ntp6977
Rp6978
(dp6979
g8
S'Jorvorskie Lane'
p6980
sg10
F2.0
sg11
I00
sg12
S'TB'
p6981
sg14
(dp6982
g16
V4.3
p6983
sg18
V47.1
p6984
sg20
V0.3
p6985
sg22
V8.2
p6986
sg24
V25.9
p6987
sg26
V0.0
p6988
sg28
V9.1
p6989
sg30
V0.0
p6990
ssg32
(lp6991
sg34
I0
sg35
I00
sg36
(lp6992
g38
asg39
F1.6
sg40
F2.4
sbsS'Donald Brown - SD'
p6993
g2
(g3
g4
Ntp6994
Rp6995
(dp6996
g8
S'Donald Brown'
p6997
sg10
F2.0
sg11
I00
sg12
S'SD'
p6998
sg14
(dp6999
g16
V3.6
p7000
sg18
V24.4
p7001
sg20
V0.1
p7002
sg22
V6.5
p7003
sg24
V27.1
p7004
sg26
V0.1
p7005
sg28
V6.4
p7006
sg30
V0.0
p7007
ssg32
(lp7008
sg34
I0
sg35
I00
sg36
(lp7009
g38
asg39
F1.6
sg40
F2.4
sbsS'Terrance Williams - DAL'
p7010
g2
(g3
g4
Ntp7011
Rp7012
(dp7013
g8
S'Terrance Williams'
p7014
sg10
F2.0
sg11
I00
sg12
S'DAL'
p7015
sg14
(dp7016
g16
V40.9
p7017
sg18
V0.2
p7018
sg20
V0.0
p7019
sg22
V0.1
p7020
sg24
V681.7
p7021
sg26
V6.2
p7022
sg28
V104.0
p7023
sg30
V0.6
p7024
ssg32
(lp7025
sg34
I0
sg35
I00
sg36
(lp7026
g75
asg39
F1.6
sg40
F2.4
sbsS'Roy Helu - OAK'
p7027
g2
(g3
g4
Ntp7028
Rp7029
(dp7030
g8
S'Roy Helu'
p7031
sg10
F2.0
sg11
I00
sg12
S'OAK'
p7032
sg14
(dp7033
g16
V37.4
p7034
sg18
V298.9
p7035
sg20
V1.8
p7036
sg22
V69.4
p7037
sg24
V309.0
p7038
sg26
V1.1
p7039
sg28
V75.5
p7040
sg30
V1.3
p7041
ssg32
(lp7042
sg34
I0
sg35
I00
sg36
(lp7043
g38
asg39
F1.6
sg40
F2.4
sbsS'Drew Stanton - ARI'
p7044
g2
(g3
g4
Ntp7045
Rp7046
(dp7047
g8
S'Drew Stanton'
p7048
sg10
F2.0
sg11
I00
sg12
S'ARI'
p7049
sg14
(dp7050
g98
V0.8
p7051
sg22
V2.0
p7052
sg101
V25.8
p7053
sg20
V0.0
p7054
sg104
V176.0
p7055
sg106
V15.4
p7056
sg28
V9.6
p7057
sg30
V0.1
p7058
sg110
V0.9
p7059
sg18
V6.7
p7060
ssg32
(lp7061
sg34
I0
sg35
I00
sg36
(lp7062
g115
asg39
F1.6
sg40
F2.4
sbsS'Mychal Rivera - OAK'
p7063
g2
(g3
g4
Ntp7064
Rp7065
(dp7066
g8
S'Mychal Rivera'
p7067
sg10
F2.0
sg11
I00
sg12
S'OAK'
p7068
sg14
(dp7069
g16
V42.8
p7070
sg30
V0.9
p7071
sg24
V441.6
p7072
sg26
V3.4
p7073
sg28
V62.7
p7074
ssg32
(lp7075
sg34
I0
sg35
I00
sg36
(lp7076
g90
asg39
F1.6
sg40
F2.4
sbsS'Devin Street - DAL'
p7077
g2
(g3
g4
Ntp7078
Rp7079
(dp7080
g8
S'Devin Street'
p7081
sg10
F2.0
sg11
I00
sg12
S'DAL'
p7082
sg14
(dp7083
g16
V9.3
p7084
sg18
V0.0
p7085
sg20
V0.0
p7086
sg22
V0.0
p7087
sg24
V124.5
p7088
sg26
V0.1
p7089
sg28
V13.3
p7090
sg30
V0.0
p7091
ssg32
(lp7092
sg34
I0
sg35
I00
sg36
(lp7093
g75
asg39
F1.6
sg40
F2.4
sbsS'Tyler Clutts - DAL'
p7094
g2
(g3
g4
Ntp7095
Rp7096
(dp7097
g8
S'Tyler Clutts'
p7098
sg10
F2.0
sg11
I00
sg12
S'DAL'
p7099
sg14
(dp7100
g16
V6.4
p7101
sg18
V24.9
p7102
sg20
V0.2
p7103
sg22
V8.5
p7104
sg24
V25.0
p7105
sg26
V1.6
p7106
sg28
V14.0
p7107
sg30
V0.6
p7108
ssg32
(lp7109
sg34
I0
sg35
I00
sg36
(lp7110
g38
asg39
F1.6
sg40
F2.4
sbsS'Rod Streater - OAK'
p7111
g2
(g3
g4
Ntp7112
Rp7113
(dp7114
g8
S'Rod Streater'
p7115
sg10
F2.0
sg11
I00
sg12
S'OAK'
p7116
sg14
(dp7117
g16
V29.4
p7118
sg18
V0.2
p7119
sg20
V0.0
p7120
sg22
V0.0
p7121
sg24
V399.9
p7122
sg26
V2.4
p7123
sg28
V52.5
p7124
sg30
V0.8
p7125
ssg32
(lp7126
sg34
I0
sg35
I00
sg36
(lp7127
g75
asg39
F1.6
sg40
F2.4
sbsS'Jamison Crowder - WAS'
p7128
g2
(g3
g4
Ntp7129
Rp7130
(dp7131
g8
S'Jamison Crowder'
p7132
sg10
F2.0
sg11
I00
sg12
S'WAS'
p7133
sg14
(dp7134
g16
V5.7
p7135
sg18
V0.0
p7136
sg20
V0.0
p7137
sg22
V0.0
p7138
sg24
V71.7
p7139
sg26
V0.3
p7140
sg28
V8.9
p7141
sg30
V0.0
p7142
ssg32
(lp7143
sg34
I0
sg35
I00
sg36
(lp7144
g75
asg39
F1.6
sg40
F2.4
sbsS'Chris Conley - KC'
p7145
g2
(g3
g4
Ntp7146
Rp7147
(dp7148
g8
S'Chris Conley'
p7149
sg10
F2.0
sg11
I00
sg12
S'KC'
p7150
sg14
(dp7151
g16
V28.0
p7152
sg18
V0.0
p7153
sg20
V0.0
p7154
sg22
V0.0
p7155
sg24
V350.5
p7156
sg26
V2.0
p7157
sg28
V47.1
p7158
sg30
V0.0
p7159
ssg32
(lp7160
sg34
I0
sg35
I00
sg36
(lp7161
g75
asg39
F1.6
sg40
F2.4
sbsS'Kenny Bell - TB'
p7162
g2
(g3
g4
Ntp7163
Rp7164
(dp7165
g8
S'Kenny Bell'
p7166
sg10
F2.0
sg11
I00
sg12
S'TB'
p7167
sg14
(dp7168
g16
V6.0
p7169
sg18
V0.0
p7170
sg20
V0.0
p7171
sg22
V0.0
p7172
sg24
V77.0
p7173
sg26
V0.0
p7174
sg28
V7.7
p7175
sg30
V0.0
p7176
ssg32
(lp7177
sg34
I0
sg35
I00
sg36
(lp7178
g75
asg39
F1.6
sg40
F2.4
sbsS'Matt Slater - NE'
p7179
g2
(g3
g4
Ntp7180
Rp7181
(dp7182
g8
S'Matt Slater'
p7183
sg10
F2.0
sg11
I00
sg12
S'NE'
p7184
sg14
(dp7185
g16
V5.6
p7186
sg18
V0.0
p7187
sg20
V0.0
p7188
sg22
V0.0
p7189
sg24
V70.6
p7190
sg26
V0.4
p7191
sg28
V9.5
p7192
sg30
V0.0
p7193
ssg32
(lp7194
sg34
I0
sg35
I00
sg36
(lp7195
g75
asg39
F1.6
sg40
F2.4
sbsS'Derrick Coleman - SEA'
p7196
g2
(g3
g4
Ntp7197
Rp7198
(dp7199
g8
S'Derrick Coleman'
p7200
sg10
F2.0
sg11
I00
sg12
S'SEA'
p7201
sg14
(dp7202
g16
V9.2
p7203
sg18
V4.0
p7204
sg20
V0.0
p7205
sg22
V2.5
p7206
sg24
V104.9
p7207
sg26
V1.8
p7208
sg28
V21.6
p7209
sg30
V0.0
p7210
ssg32
(lp7211
sg34
I0
sg35
I00
sg36
(lp7212
g38
asg39
F1.6
sg40
F2.4
sbsS'Joe Flacco - BAL'
p7213
g2
(g3
g4
Ntp7214
Rp7215
(dp7216
g8
S'Joe Flacco'
p7217
sg10
F2.0
sg11
I00
sg12
S'BAL'
p7218
sg14
(dp7219
g98
V14.5
p7220
sg22
V42.3
p7221
sg101
V554.7
p7222
sg20
V1.5
p7223
sg104
V3909.8
p7224
sg106
V340.6
p7225
sg28
V245.2
p7226
sg30
V2.7
p7227
sg110
V25.4
p7228
sg18
V125.8
p7229
ssg32
(lp7230
sg34
I0
sg35
I00
sg36
(lp7231
g115
asg39
F1.6
sg40
F2.4
sbsS'Ryan Spadola - ARI'
p7232
g2
(g3
g4
Ntp7233
Rp7234
(dp7235
g8
S'Ryan Spadola'
p7236
sg10
F2.0
sg11
I00
sg12
S'ARI'
p7237
sg14
(dp7238
g16
V5.1
p7239
sg18
V0.0
p7240
sg20
V0.0
p7241
sg22
V0.0
p7242
sg24
V64.6
p7243
sg26
V0.3
p7244
sg28
V8.1
p7245
sg30
V0.0
p7246
ssg32
(lp7247
sg34
I0
sg35
I00
sg36
(lp7248
g75
asg39
F1.6
sg40
F2.4
sbsS'Stevan Ridley - NYJ'
p7249
g2
(g3
g4
Ntp7250
Rp7251
(dp7252
g8
S'Stevan Ridley'
p7253
sg10
F2.0
sg11
I00
sg12
S'NYJ'
p7254
sg14
(dp7255
g16
V5.3
p7256
sg18
V258.3
p7257
sg20
V1.9
p7258
sg22
V60.4
p7259
sg24
V37.7
p7260
sg26
V0.1
p7261
sg28
V37.4
p7262
sg30
V2.0
p7263
ssg32
(lp7264
sg34
I0
sg35
I00
sg36
(lp7265
g38
asg39
F1.6
sg40
F2.4
sbsS'Jeremy - Ross'
p7266
g2
(g3
g4
Ntp7267
Rp7268
(dp7269
g8
S'Jeremy'
p7270
sg10
F2.0
sg11
I00
sg12
S'Ross'
p7271
sg14
(dp7272
g16
V22.6
p7273
sg18
V0.0
p7274
sg20
V0.0
p7275
sg22
V0.0
p7276
sg24
V307.0
p7277
sg26
V1.8
p7278
sg28
V37.0
p7279
sg30
V2.1
p7280
ssg32
(lp7281
sg34
I0
sg35
I00
sg36
(lp7282
g75
asg39
F1.6
sg40
F2.4
sbsS'Drew Brees - NO'
p7283
g2
(g3
g4
Ntp7284
Rp7285
(dp7286
g8
S'Drew Brees'
p7287
sg10
F2.0
sg11
I00
sg12
S'NO'
p7288
sg14
(dp7289
g98
V14.4
p7290
sg22
V27.9
p7291
sg101
V621.1
p7292
sg20
V1.3
p7293
sg104
V4800.1
p7294
sg106
V417.4
p7295
sg28
V295.1
p7296
sg30
V3.1
p7297
sg110
V30.9
p7298
sg18
V70.3
p7299
ssg32
(lp7300
sg34
I0
sg35
I00
sg36
(lp7301
g115
asg39
F1.6
sg40
F2.4
sbsS'Garrett Celek - SF'
p7302
g2
(g3
g4
Ntp7303
Rp7304
(dp7305
g8
S'Garrett Celek'
p7306
sg10
F2.0
sg11
I00
sg12
S'SF'
p7307
sg14
(dp7308
g16
V2.6
p7309
sg30
V0.0
p7310
sg24
V41.3
p7311
sg26
V0.4
p7312
sg28
V6.7
p7313
ssg32
(lp7314
sg34
I0
sg35
I00
sg36
(lp7315
g90
asg39
F1.6
sg40
F2.4
sbsS'Malcolm - Brown'
p7316
g2
(g3
g4
Ntp7317
Rp7318
(dp7319
g8
S'Malcolm'
p7320
sg10
F2.0
sg11
I00
sg12
S'Brown'
p7321
sg14
(dp7322
g16
V0.2
p7323
sg18
V2.5
p7324
sg20
V0.0
p7325
sg22
V0.8
p7326
sg24
V1.2
p7327
sg26
V0.0
p7328
sg28
V0.4
p7329
sg30
V0.0
p7330
ssg32
(lp7331
sg34
I0
sg35
I00
sg36
(lp7332
g38
asg39
F1.6
sg40
F2.4
sbsS'Devonta Freeman - ATL'
p7333
g2
(g3
g4
Ntp7334
Rp7335
(dp7336
g8
S'Devonta Freeman'
p7337
sg10
F2.0
sg11
I00
sg12
S'ATL'
p7338
sg14
(dp7339
g16
V38.4
p7340
sg18
V589.2
p7341
sg20
V3.7
p7342
sg22
V152.6
p7343
sg24
V311.3
p7344
sg26
V1.1
p7345
sg28
V115.6
p7346
sg30
V1.4
p7347
ssg32
(lp7348
sg34
I0
sg35
I00
sg36
(lp7349
g38
asg39
F1.6
sg40
F2.4
sbsS'Randall Cobb - GB'
p7350
g2
(g3
g4
Ntp7351
Rp7352
(dp7353
g8
S'Randall Cobb'
p7354
sg10
F2.0
sg11
I00
sg12
S'GB'
p7355
sg14
(dp7356
g16
V91.6
p7357
sg18
V60.6
p7358
sg20
V0.0
p7359
sg22
V7.7
p7360
sg24
V1255.3
p7361
sg26
V9.3
p7362
sg28
V183.3
p7363
sg30
V2.2
p7364
ssg32
(lp7365
sg34
I0
sg35
I00
sg36
(lp7366
g75
asg39
F1.6
sg40
F2.4
sbsS'Dri Archer - PIT'
p7367
g2
(g3
g4
Ntp7368
Rp7369
(dp7370
g8
S'Dri Archer'
p7371
sg10
F2.0
sg11
I00
sg12
S'PIT'
p7372
sg14
(dp7373
g16
V10.5
p7374
sg18
V66.4
p7375
sg20
V0.2
p7376
sg22
V18.5
p7377
sg24
V81.2
p7378
sg26
V0.4
p7379
sg28
V18.3
p7380
sg30
V0.2
p7381
ssg32
(lp7382
sg34
I0
sg35
I00
sg36
(lp7383
g38
asg39
F1.6
sg40
F2.4
sbsS'Marion Grice - ARI'
p7384
g2
(g3
g4
Ntp7385
Rp7386
(dp7387
g8
S'Marion Grice'
p7388
sg10
F2.0
sg11
I00
sg12
S'ARI'
p7389
sg14
(dp7390
g16
V4.6
p7391
sg18
V37.0
p7392
sg20
V0.3
p7393
sg22
V9.3
p7394
sg24
V31.5
p7395
sg26
V0.1
p7396
sg28
V9.0
p7397
sg30
V0.0
p7398
ssg32
(lp7399
sg34
I0
sg35
I00
sg36
(lp7400
g38
asg39
F1.6
sg40
F2.4
sbsS'MyCole Pruitt - MIN'
p7401
g2
(g3
g4
Ntp7402
Rp7403
(dp7404
g8
S'MyCole Pruitt'
p7405
sg10
F2.0
sg11
I00
sg12
S'MIN'
p7406
sg14
(dp7407
g16
V5.3
p7408
sg30
V0.0
p7409
sg24
V59.1
p7410
sg26
V0.6
p7411
sg28
V9.2
p7412
ssg32
(lp7413
sg34
I0
sg35
I00
sg36
(lp7414
g90
asg39
F1.6
sg40
F2.4
sbsS'Zach Line - MIN'
p7415
g2
(g3
g4
Ntp7416
Rp7417
(dp7418
g8
S'Zach Line'
p7419
sg10
F2.0
sg11
I00
sg12
S'MIN'
p7420
sg14
(dp7421
g16
V11.8
p7422
sg18
V86.0
p7423
sg20
V0.6
p7424
sg22
V17.4
p7425
sg24
V94.0
p7426
sg26
V0.3
p7427
sg28
V23.2
p7428
sg30
V0.1
p7429
ssg32
(lp7430
sg34
I0
sg35
I00
sg36
(lp7431
g38
asg39
F1.6
sg40
F2.4
sbsS'Eli Manning - NYG'
p7432
g2
(g3
g4
Ntp7433
Rp7434
(dp7435
g8
S'Eli Manning'
p7436
sg10
F2.0
sg11
I00
sg12
S'NYG'
p7437
sg14
(dp7438
g98
V16.4
p7439
sg22
V24.6
p7440
sg101
V590.1
p7441
sg20
V0.8
p7442
sg104
V4322.6
p7443
sg106
V365.3
p7444
sg28
V254.1
p7445
sg30
V3.9
p7446
sg110
V27.4
p7447
sg18
V75.1
p7448
ssg32
(lp7449
sg34
I0
sg35
I00
sg36
(lp7450
g115
asg39
F1.6
sg40
F2.4
sbsS'Austin - Davis'
p7451
g2
(g3
g4
Ntp7452
Rp7453
(dp7454
g8
S'Austin'
p7455
sg10
F2.0
sg11
I00
sg12
S'Davis'
p7456
sg14
(dp7457
g98
V0.7
p7458
sg22
V2.3
p7459
sg101
V21.8
p7460
sg20
V0.0
p7461
sg104
V143.6
p7462
sg106
V13.3
p7463
sg28
V7.9
p7464
sg30
V0.2
p7465
sg110
V0.8
p7466
sg18
V5.9
p7467
ssg32
(lp7468
sg34
I0
sg35
I00
sg36
(lp7469
g115
asg39
F1.6
sg40
F2.4
sbsS'Adam Thielen - MIN'
p7470
g2
(g3
g4
Ntp7471
Rp7472
(dp7473
g8
S'Adam Thielen'
p7474
sg10
F2.0
sg11
I00
sg12
S'MIN'
p7475
sg14
(dp7476
g16
V3.5
p7477
sg18
V0.0
p7478
sg20
V0.0
p7479
sg22
V0.0
p7480
sg24
V44.0
p7481
sg26
V0.2
p7482
sg28
V5.5
p7483
sg30
V0.0
p7484
ssg32
(lp7485
sg34
I0
sg35
I00
sg36
(lp7486
g75
asg39
F1.6
sg40
F2.4
sbsS'Jason Witten - DAL'
p7487
g2
(g3
g4
Ntp7488
Rp7489
(dp7490
g8
S'Jason Witten'
p7491
sg10
F2.0
sg11
I00
sg12
S'DAL'
p7492
sg14
(dp7493
g16
V64.9
p7494
sg30
V0.4
p7495
sg24
V740.9
p7496
sg26
V5.8
p7497
sg28
V107.8
p7498
ssg32
(lp7499
sg34
I0
sg35
I00
sg36
(lp7500
g90
asg39
F1.6
sg40
F2.4
sbsS'Dwayne Harris - NYG'
p7501
g2
(g3
g4
Ntp7502
Rp7503
(dp7504
g8
S'Dwayne Harris'
p7505
sg10
F2.0
sg11
I00
sg12
S'NYG'
p7506
sg14
(dp7507
g16
V2.9
p7508
sg18
V2.7
p7509
sg20
V0.0
p7510
sg22
V0.3
p7511
sg24
V39.6
p7512
sg26
V0.1
p7513
sg28
V4.8
p7514
sg30
V0.1
p7515
ssg32
(lp7516
sg34
I0
sg35
I00
sg36
(lp7517
g75
asg39
F1.6
sg40
F2.4
sbsS'Cameron Artis-Payne - CAR'
p7518
g2
(g3
g4
Ntp7519
Rp7520
(dp7521
g8
S'Cameron Artis-Payne'
p7522
sg10
F2.0
sg11
I00
sg12
S'CAR'
p7523
sg14
(dp7524
g16
V9.1
p7525
sg18
V204.3
p7526
sg20
V1.5
p7527
sg22
V50.3
p7528
sg24
V75.4
p7529
sg26
V0.1
p7530
sg28
V37.7
p7531
sg30
V0.0
p7532
ssg32
(lp7533
sg34
I0
sg35
I00
sg36
(lp7534
g38
asg39
F1.6
sg40
F2.4
sbsS'Philly Brown - CAR'
p7535
g2
(g3
g4
Ntp7536
Rp7537
(dp7538
g8
S'Philly Brown'
p7539
sg10
F2.0
sg11
I00
sg12
S'CAR'
p7540
sg14
(dp7541
g16
V35.1
p7542
sg18
V24.2
p7543
sg20
V0.0
p7544
sg22
V3.4
p7545
sg24
V500.6
p7546
sg26
V2.7
p7547
sg28
V65.7
p7548
sg30
V1.5
p7549
ssg32
(lp7550
sg34
I0
sg35
I00
sg36
(lp7551
g75
asg39
F1.6
sg40
F2.4
sbsS'Charlie Whitehurst - TEN'
p7552
g2
(g3
g4
Ntp7553
Rp7554
(dp7555
g8
S'Charlie Whitehurst'
p7556
sg10
F2.0
sg11
I00
sg12
S'TEN'
p7557
sg14
(dp7558
g98
V0.0
p7559
sg22
V0.0
p7560
sg101
V0.0
p7561
sg20
V0.0
p7562
sg104
V0.0
p7563
sg106
V0.0
p7564
sg28
V0.0
p7565
sg30
V0.0
p7566
sg110
V0.0
p7567
sg18
V0.0
p7568
ssg32
(lp7569
sg34
I0
sg35
I00
sg36
(lp7570
g115
asg39
F1.6
sg40
F2.4
sbsS'Allen Hurns - JAC'
p7571
g2
(g3
g4
Ntp7572
Rp7573
(dp7574
g8
S'Allen Hurns'
p7575
sg10
F2.0
sg11
I00
sg12
S'JAC'
p7576
sg14
(dp7577
g16
V46.9
p7578
sg18
V8.0
p7579
sg20
V0.0
p7580
sg22
V1.3
p7581
sg24
V607.3
p7582
sg26
V3.5
p7583
sg28
V82.2
p7584
sg30
V0.3
p7585
ssg32
(lp7586
sg34
I0
sg35
I00
sg36
(lp7587
g75
asg39
F1.6
sg40
F2.4
sbsS'Breshad Perriman - BAL'
p7588
g2
(g3
g4
Ntp7589
Rp7590
(dp7591
g8
S'Breshad Perriman'
p7592
sg10
F2.0
sg11
I00
sg12
S'BAL'
p7593
sg14
(dp7594
g16
V39.2
p7595
sg18
V0.0
p7596
sg20
V0.0
p7597
sg22
V0.0
p7598
sg24
V566.3
p7599
sg26
V4.0
p7600
sg28
V79.5
p7601
sg30
V0.5
p7602
ssg32
(lp7603
sg34
I0
sg35
I00
sg36
(lp7604
g75
asg39
F1.6
sg40
F2.4
sbsS'Richard Rodgers - GB'
p7605
g2
(g3
g4
Ntp7606
Rp7607
(dp7608
g8
S'Richard Rodgers'
p7609
sg10
F2.0
sg11
I00
sg12
S'GB'
p7610
sg14
(dp7611
g16
V36.4
p7612
sg30
V0.3
p7613
sg24
V402.1
p7614
sg26
V4.6
p7615
sg28
V67.0
p7616
ssg32
(lp7617
sg34
I0
sg35
I00
sg36
(lp7618
g90
asg39
F1.6
sg40
F2.4
sbsS'Alfred Morris - WAS'
p7619
g2
(g3
g4
Ntp7620
Rp7621
(dp7622
g8
S'Alfred Morris'
p7623
sg10
F2.0
sg11
I00
sg12
S'WAS'
p7624
sg14
(dp7625
g16
V19.8
p7626
sg18
V1022.8
p7627
sg20
V6.4
p7628
sg22
V232.6
p7629
sg24
V150.1
p7630
sg26
V0.6
p7631
sg28
V156.1
p7632
sg30
V1.7
p7633
ssg32
(lp7634
sg34
I0
sg35
I00
sg36
(lp7635
g38
asg39
F1.6
sg40
F2.4
sbsS'Marcus Mariota - TEN'
p7636
g2
(g3
g4
Ntp7637
Rp7638
(dp7639
g8
S'Marcus Mariota'
p7640
sg10
F2.0
sg11
I00
sg12
S'TEN'
p7641
sg14
(dp7642
g98
V15.1
p7643
sg22
V61.6
p7644
sg101
V485.3
p7645
sg20
V1.8
p7646
sg104
V3391.0
p7647
sg106
V290.0
p7648
sg28
V214.1
p7649
sg30
V3.1
p7650
sg110
V18.1
p7651
sg18
V315.3
p7652
ssg32
(lp7653
sg34
I0
sg35
I00
sg36
(lp7654
g115
asg39
F1.6
sg40
F2.4
sbsS'Erik - Lorig'
p7655
g2
(g3
g4
Ntp7656
Rp7657
(dp7658
g8
S'Erik'
p7659
sg10
F2.0
sg11
I00
sg12
S'Lorig'
p7660
sg14
(dp7661
g16
V4.5
p7662
sg18
V5.1
p7663
sg20
V0.2
p7664
sg22
V3.8
p7665
sg24
V14.2
p7666
sg26
V0.2
p7667
sg28
V4.0
p7668
sg30
V0.0
p7669
ssg32
(lp7670
sg34
I0
sg35
I00
sg36
(lp7671
g38
asg39
F1.6
sg40
F2.4
sbsS'James Develin - NE'
p7672
g2
(g3
g4
Ntp7673
Rp7674
(dp7675
g8
S'James Develin'
p7676
sg10
F2.0
sg11
I00
sg12
S'NE'
p7677
sg14
(dp7678
g16
V14.4
p7679
sg18
V52.1
p7680
sg20
V0.2
p7681
sg22
V18.7
p7682
sg24
V91.5
p7683
sg26
V0.3
p7684
sg28
V17.4
p7685
sg30
V0.0
p7686
ssg32
(lp7687
sg34
I0
sg35
I00
sg36
(lp7688
g38
asg39
F1.6
sg40
F2.4
sbsS'Sean Mannion - STL'
p7689
g2
(g3
g4
Ntp7690
Rp7691
(dp7692
g8
S'Sean Mannion'
p7693
sg10
F2.0
sg11
I00
sg12
S'STL'
p7694
sg14
(dp7695
g98
V0.0
p7696
sg22
V0.0
p7697
sg101
V0.0
p7698
sg20
V0.0
p7699
sg104
V0.0
p7700
sg106
V0.0
p7701
sg28
V0.0
p7702
sg30
V0.0
p7703
sg110
V0.0
p7704
sg18
V0.0
p7705
ssg32
(lp7706
sg34
I0
sg35
I00
sg36
(lp7707
g115
asg39
F1.6
sg40
F2.4
sbsS'Javorius Allen - BAL'
p7708
g2
(g3
g4
Ntp7709
Rp7710
(dp7711
g8
S'Javorius Allen'
p7712
sg10
F2.0
sg11
I00
sg12
S'BAL'
p7713
sg14
(dp7714
g16
V13.2
p7715
sg18
V313.0
p7716
sg20
V2.0
p7717
sg22
V71.1
p7718
sg24
V103.3
p7719
sg26
V0.2
p7720
sg28
V52.2
p7721
sg30
V1.3
p7722
ssg32
(lp7723
sg34
I0
sg35
I00
sg36
(lp7724
g38
asg39
F1.6
sg40
F2.4
sbsS'Aaron Rodgers - GB'
p7725
g2
(g3
g4
Ntp7726
Rp7727
(dp7728
g8
S'Aaron Rodgers'
p7729
sg10
F2.0
sg11
I00
sg12
S'GB'
p7730
sg14
(dp7731
g98
V9.1
p7732
sg22
V49.0
p7733
sg101
V549.6
p7734
sg20
V2.0
p7735
sg104
V4407.9
p7736
sg106
V357.2
p7737
sg28
V325.6
p7738
sg30
V3.3
p7739
sg110
V34.4
p7740
sg18
V242.9
p7741
ssg32
(lp7742
sg34
I0
sg35
I00
sg36
(lp7743
g115
asg39
F1.6
sg40
F2.4
sbsS'Ricky Stanzi - NYG'
p7744
g2
(g3
g4
Ntp7745
Rp7746
(dp7747
g8
S'Ricky Stanzi'
p7748
sg10
F2.0
sg11
I00
sg12
S'NYG'
p7749
sg14
(dp7750
g98
V0.0
p7751
sg22
V0.0
p7752
sg101
V0.0
p7753
sg20
V0.0
p7754
sg104
V0.0
p7755
sg106
V0.0
p7756
sg28
V0.0
p7757
sg30
V0.0
p7758
sg110
V0.0
p7759
sg18
V0.0
p7760
ssg32
(lp7761
sg34
I0
sg35
I00
sg36
(lp7762
g115
asg39
F1.6
sg40
F2.4
sbsS'Benjamin Watson - NO'
p7763
g2
(g3
g4
Ntp7764
Rp7765
(dp7766
g8
S'Benjamin Watson'
p7767
sg10
F2.0
sg11
I00
sg12
S'NO'
p7768
sg14
(dp7769
g16
V41.8
p7770
sg30
V0.4
p7771
sg24
V426.6
p7772
sg26
V2.7
p7773
sg28
V58.2
p7774
ssg32
(lp7775
sg34
I0
sg35
I00
sg36
(lp7776
g90
asg39
F1.6
sg40
F2.4
sbsS'Bruce Ellington - SF'
p7777
g2
(g3
g4
Ntp7778
Rp7779
(dp7780
g8
S'Bruce Ellington'
p7781
sg10
F2.0
sg11
I00
sg12
S'SF'
p7782
sg14
(dp7783
g16
V10.7
p7784
sg18
V1.9
p7785
sg20
V0.0
p7786
sg22
V0.3
p7787
sg24
V151.3
p7788
sg26
V1.6
p7789
sg28
V24.2
p7790
sg30
V0.4
p7791
ssg32
(lp7792
sg34
I0
sg35
I00
sg36
(lp7793
g75
asg39
F1.6
sg40
F2.4
sbsS'Michael Campanaro - BAL'
p7794
g2
(g3
g4
Ntp7795
Rp7796
(dp7797
g8
S'Michael Campanaro'
p7798
sg10
F2.0
sg11
I00
sg12
S'BAL'
p7799
sg14
(dp7800
g16
V11.8
p7801
sg18
V0.0
p7802
sg20
V0.0
p7803
sg22
V0.0
p7804
sg24
V152.0
p7805
sg26
V0.8
p7806
sg28
V18.9
p7807
sg30
V0.4
p7808
ssg32
(lp7809
sg34
I0
sg35
I00
sg36
(lp7810
g75
asg39
F1.6
sg40
F2.4
sbsS'David Cobb - TEN'
p7811
g2
(g3
g4
Ntp7812
Rp7813
(dp7814
g8
S'David Cobb'
p7815
sg10
F2.0
sg11
I00
sg12
S'TEN'
p7816
sg14
(dp7817
g16
V17.8
p7818
sg18
V469.5
p7819
sg20
V3.1
p7820
sg22
V113.8
p7821
sg24
V145.4
p7822
sg26
V0.4
p7823
sg28
V80.1
p7824
sg30
V1.3
p7825
ssg32
(lp7826
sg34
I0
sg35
I00
sg36
(lp7827
g38
asg39
F1.6
sg40
F2.4
sbsS'Bilal Powell - NYJ'
p7828
g2
(g3
g4
Ntp7829
Rp7830
(dp7831
g8
S'Bilal Powell'
p7832
sg10
F2.0
sg11
I00
sg12
S'NYJ'
p7833
sg14
(dp7834
g16
V28.2
p7835
sg18
V240.1
p7836
sg20
V1.6
p7837
sg22
V58.3
p7838
sg24
V216.5
p7839
sg26
V0.5
p7840
sg28
V55.9
p7841
sg30
V1.2
p7842
ssg32
(lp7843
sg34
I0
sg35
I00
sg36
(lp7844
g38
asg39
F1.6
sg40
F2.4
sbsS'John Kuhn - GB'
p7845
g2
(g3
g4
Ntp7846
Rp7847
(dp7848
g8
S'John Kuhn'
p7849
sg10
F2.0
sg11
I00
sg12
S'GB'
p7850
sg14
(dp7851
g16
V9.7
p7852
sg18
V86.7
p7853
sg20
V1.0
p7854
sg22
V22.1
p7855
sg24
V62.6
p7856
sg26
V0.1
p7857
sg28
V20.3
p7858
sg30
V0.5
p7859
ssg32
(lp7860
sg34
I0
sg35
I00
sg36
(lp7861
g38
asg39
F1.6
sg40
F2.4
sbsS'Martavis Bryant - PIT'
p7862
g2
(g3
g4
Ntp7863
Rp7864
(dp7865
g8
S'Martavis Bryant'
p7866
sg10
F2.0
sg11
I00
sg12
S'PIT'
p7867
sg14
(dp7868
g16
V34.5
p7869
sg18
V8.1
p7870
sg20
V0.0
p7871
sg22
V1.5
p7872
sg24
V548.6
p7873
sg26
V5.2
p7874
sg28
V86.1
p7875
sg30
V0.3
p7876
ssg32
(lp7877
sg34
I0
sg35
I00
sg36
(lp7878
g75
asg39
F1.6
sg40
F2.4
sbsS'Kendall Wright - TEN'
p7879
g2
(g3
g4
Ntp7880
Rp7881
(dp7882
g8
S'Kendall Wright'
p7883
sg10
F2.0
sg11
I00
sg12
S'TEN'
p7884
sg14
(dp7885
g16
V69.9
p7886
sg18
V12.9
p7887
sg20
V0.0
p7888
sg22
V2.0
p7889
sg24
V803.9
p7890
sg26
V4.4
p7891
sg28
V105.9
p7892
sg30
V1.1
p7893
ssg32
(lp7894
sg34
I0
sg35
I00
sg36
(lp7895
g75
asg39
F1.6
sg40
F2.4
sbsS'Lance Kendricks - STL'
p7896
g2
(g3
g4
Ntp7897
Rp7898
(dp7899
g8
S'Lance Kendricks'
p7900
sg10
F2.0
sg11
I00
sg12
S'STL'
p7901
sg14
(dp7902
g16
V25.6
p7903
sg30
V0.3
p7904
sg24
V264.4
p7905
sg26
V3.3
p7906
sg28
V45.5
p7907
ssg32
(lp7908
sg34
I0
sg35
I00
sg36
(lp7909
g90
asg39
F1.6
sg40
F2.4
sbsS'Kiero - Small'
p7910
g2
(g3
g4
Ntp7911
Rp7912
(dp7913
g8
S'Kiero'
p7914
sg10
F2.0
sg11
I00
sg12
S'Small'
p7915
sg14
(dp7916
g16
V1.8
p7917
sg18
V17.5
p7918
sg20
V0.1
p7919
sg22
V3.9
p7920
sg24
V12.7
p7921
sg26
V0.0
p7922
sg28
V3.5
p7923
sg30
V0.0
p7924
ssg32
(lp7925
sg34
I0
sg35
I00
sg36
(lp7926
g38
asg39
F1.6
sg40
F2.4
sbsS'Robert Woods - BUF'
p7927
g2
(g3
g4
Ntp7928
Rp7929
(dp7930
g8
S'Robert Woods'
p7931
sg10
F2.0
sg11
I00
sg12
S'BUF'
p7932
sg14
(dp7933
g16
V35.9
p7934
sg18
V0.1
p7935
sg20
V0.0
p7936
sg22
V0.1
p7937
sg24
V449.5
p7938
sg26
V3.0
p7939
sg28
V61.2
p7940
sg30
V1.0
p7941
ssg32
(lp7942
sg34
I0
sg35
I00
sg36
(lp7943
g75
asg39
F1.6
sg40
F2.4
sbsS'Marqise Lee - JAC'
p7944
g2
(g3
g4
Ntp7945
Rp7946
(dp7947
g8
S'Marqise Lee'
p7948
sg10
F2.0
sg11
I00
sg12
S'JAC'
p7949
sg14
(dp7950
g16
V39.3
p7951
sg18
V2.4
p7952
sg20
V0.0
p7953
sg22
V0.6
p7954
sg24
V472.1
p7955
sg26
V1.7
p7956
sg28
V56.9
p7957
sg30
V0.3
p7958
ssg32
(lp7959
sg34
I0
sg35
I00
sg36
(lp7960
g75
asg39
F1.6
sg40
F2.4
sbsS'Phillip Supernaw - TEN'
p7961
g2
(g3
g4
Ntp7962
Rp7963
(dp7964
g8
S'Phillip Supernaw'
p7965
sg10
F2.0
sg11
I00
sg12
S'TEN'
p7966
sg14
(dp7967
g16
V5.7
p7968
sg30
V0.0
p7969
sg24
V48.7
p7970
sg26
V0.4
p7971
sg28
V7.2
p7972
ssg32
(lp7973
sg34
I0
sg35
I00
sg36
(lp7974
g90
asg39
F1.6
sg40
F2.4
sbsS'Jimmy Garoppolo - NE'
p7975
g2
(g3
g4
Ntp7976
Rp7977
(dp7978
g8
S'Jimmy Garoppolo'
p7979
sg10
F2.0
sg11
I00
sg12
S'NE'
p7980
sg14
(dp7981
g98
V0.5
p7982
sg22
V1.9
p7983
sg101
V19.6
p7984
sg20
V0.0
p7985
sg104
V124.0
p7986
sg106
V11.5
p7987
sg28
V6.9
p7988
sg30
V0.2
p7989
sg110
V0.7
p7990
sg18
V4.0
p7991
ssg32
(lp7992
sg34
I0
sg35
I00
sg36
(lp7993
g115
asg39
F1.6
sg40
F2.4
sbsS'Chris Thompson - WAS'
p7994
g2
(g3
g4
Ntp7995
Rp7996
(dp7997
g8
S'Chris Thompson'
p7998
sg10
F2.0
sg11
I00
sg12
S'WAS'
p7999
sg14
(dp8000
g16
V5.5
p8001
sg18
V29.5
p8002
sg20
V0.1
p8003
sg22
V7.7
p8004
sg24
V43.6
p8005
sg26
V0.2
p8006
sg28
V8.6
p8007
sg30
V0.1
p8008
ssg32
(lp8009
sg34
I0
sg35
I00
sg36
(lp8010
g38
asg39
F1.6
sg40
F2.4
sbsS'Latavius Murray - OAK'
p8011
g2
(g3
g4
Ntp8012
Rp8013
(dp8014
g8
S'Latavius Murray'
p8015
sg10
F2.0
sg11
I00
sg12
S'OAK'
p8016
sg14
(dp8017
g16
V33.9
p8018
sg18
V989.1
p8019
sg20
V6.2
p8020
sg22
V217.1
p8021
sg24
V274.6
p8022
sg26
V1.1
p8023
sg28
V167.4
p8024
sg30
V1.3
p8025
ssg32
(lp8026
sg34
I0
sg35
I00
sg36
(lp8027
g38
asg39
F1.6
sg40
F2.4
sbsS'Austin - Pettis'
p8028
g2
(g3
g4
Ntp8029
Rp8030
(dp8031
g8
S'Austin'
p8032
sg10
F2.0
sg11
I00
sg12
S'Pettis'
p8033
sg14
(dp8034
g16
V3.6
p8035
sg18
V0.0
p8036
sg20
V0.0
p8037
sg22
V0.0
p8038
sg24
V38.5
p8039
sg26
V0.4
p8040
sg28
V6.3
p8041
sg30
V0.0
p8042
ssg32
(lp8043
sg34
I0
sg35
I00
sg36
(lp8044
g75
asg39
F1.6
sg40
F2.4
sbsS'Matthew Stafford - DET'
p8045
g2
(g3
g4
Ntp8046
Rp8047
(dp8048
g8
S'Matthew Stafford'
p8049
sg10
F2.0
sg11
I00
sg12
S'DET'
p8050
sg14
(dp8051
g98
V15.0
p8052
sg22
V36.0
p8053
sg101
V635.5
p8054
sg20
V1.5
p8055
sg104
V4509.5
p8056
sg106
V384.3
p8057
sg28
V271.9
p8058
sg30
V4.0
p8059
sg110
V27.5
p8060
sg18
V106.1
p8061
ssg32
(lp8062
sg34
I0
sg35
I00
sg36
(lp8063
g115
asg39
F1.6
sg40
F2.4
sbsS'Robert Turbin - SEA'
p8064
g2
(g3
g4
Ntp8065
Rp8066
(dp8067
g8
S'Robert Turbin'
p8068
sg10
F2.0
sg11
I00
sg12
S'SEA'
p8069
sg14
(dp8070
g16
V20.0
p8071
sg18
V260.0
p8072
sg20
V0.0
p8073
sg22
V60.0
p8074
sg24
V174.0
p8075
sg26
V1.0
p8076
sg28
V49.4
p8077
sg30
V0.0
p8078
ssg32
(lp8079
sg34
I0
sg35
I00
sg36
(lp8080
g38
asg39
F1.6
sg40
F2.4
sbsS'Duron - Carter'
p8081
g2
(g3
g4
Ntp8082
Rp8083
(dp8084
g8
S'Duron'
p8085
sg10
F2.0
sg11
I00
sg12
S'Carter'
p8086
sg14
(dp8087
g16
V4.9
p8088
sg18
V0.0
p8089
sg20
V0.0
p8090
sg22
V0.0
p8091
sg24
V66.0
p8092
sg26
V0.6
p8093
sg28
V9.9
p8094
sg30
V0.0
p8095
ssg32
(lp8096
sg34
I0
sg35
I00
sg36
(lp8097
g75
asg39
F1.6
sg40
F2.4
sbsS'Jordan Campbell - WAS'
p8098
g2
(g3
g4
Ntp8099
Rp8100
(dp8101
g8
S'Jordan Campbell'
p8102
sg10
F2.0
sg11
I00
sg12
S'WAS'
p8103
sg14
(dp8104
g16
V0.3
p8105
sg18
V2.5
p8106
sg20
V0.0
p8107
sg22
V0.5
p8108
sg24
V3.3
p8109
sg26
V0.0
p8110
sg28
V0.6
p8111
sg30
V0.0
p8112
ssg32
(lp8113
sg34
I0
sg35
I00
sg36
(lp8114
g38
asg39
F1.6
sg40
F2.4
sbsS'LeGarrette Blount - NE'
p8115
g2
(g3
g4
Ntp8116
Rp8117
(dp8118
g8
S'LeGarrette Blount'
p8119
sg10
F2.0
sg11
I00
sg12
S'NE'
p8120
sg14
(dp8121
g16
V16.0
p8122
sg18
V876.8
p8123
sg20
V8.2
p8124
sg22
V196.5
p8125
sg24
V109.3
p8126
sg26
V0.4
p8127
sg28
V147.7
p8128
sg30
V1.1
p8129
ssg32
(lp8130
sg34
I0
sg35
I00
sg36
(lp8131
g38
asg39
F1.6
sg40
F2.4
sbsS'Jeremy Langford - CHI'
p8132
g2
(g3
g4
Ntp8133
Rp8134
(dp8135
g8
S'Jeremy Langford'
p8136
sg10
F2.0
sg11
I00
sg12
S'CHI'
p8137
sg14
(dp8138
g16
V1.6
p8139
sg18
V127.7
p8140
sg20
V0.6
p8141
sg22
V32.1
p8142
sg24
V12.9
p8143
sg26
V0.0
p8144
sg28
V17.4
p8145
sg30
V0.0
p8146
ssg32
(lp8147
sg34
I0
sg35
I00
sg36
(lp8148
g38
asg39
F1.6
sg40
F2.4
sbsS'Brandon Pettigrew - DET'
p8149
g2
(g3
g4
Ntp8150
Rp8151
(dp8152
g8
S'Brandon Pettigrew'
p8153
sg10
F2.0
sg11
I00
sg12
S'DET'
p8154
sg14
(dp8155
g16
V16.1
p8156
sg30
V0.5
p8157
sg24
V152.4
p8158
sg26
V1.0
p8159
sg28
V20.0
p8160
ssg32
(lp8161
sg34
I0
sg35
I00
sg36
(lp8162
g90
asg39
F1.6
sg40
F2.4
sbsS'Maxx Williams - BAL'
p8163
g2
(g3
g4
Ntp8164
Rp8165
(dp8166
g8
S'Maxx Williams'
p8167
sg10
F2.0
sg11
I00
sg12
S'BAL'
p8168
sg14
(dp8169
g16
V32.7
p8170
sg30
V0.4
p8171
sg24
V361.9
p8172
sg26
V2.7
p8173
sg28
V51.7
p8174
ssg32
(lp8175
sg34
I0
sg35
I00
sg36
(lp8176
g90
asg39
F1.6
sg40
F2.4
sbsS'Zurlon - Tipton'
p8177
g2
(g3
g4
Ntp8178
Rp8179
(dp8180
g8
S'Zurlon'
p8181
sg10
F2.0
sg11
I00
sg12
S'Tipton'
p8182
sg14
(dp8183
g16
V1.7
p8184
sg18
V24.5
p8185
sg20
V0.2
p8186
sg22
V7.3
p8187
sg24
V16.9
p8188
sg26
V0.2
p8189
sg28
V6.3
p8190
sg30
V0.1
p8191
ssg32
(lp8192
sg34
I0
sg35
I00
sg36
(lp8193
g38
asg39
F1.6
sg40
F2.4
sbsS'Brett Hundley - GB'
p8194
g2
(g3
g4
Ntp8195
Rp8196
(dp8197
g8
S'Brett Hundley'
p8198
sg10
F2.0
sg11
I00
sg12
S'GB'
p8199
sg14
(dp8200
g98
V0.0
p8201
sg22
V0.0
p8202
sg101
V0.0
p8203
sg20
V0.0
p8204
sg104
V0.0
p8205
sg106
V0.0
p8206
sg28
V0.0
p8207
sg30
V0.0
p8208
sg110
V0.0
p8209
sg18
V0.0
p8210
ssg32
(lp8211
sg34
I0
sg35
I00
sg36
(lp8212
g115
asg39
F1.6
sg40
F2.4
sbsS'Trey Williams - WAS'
p8213
g2
(g3
g4
Ntp8214
Rp8215
(dp8216
g8
S'Trey Williams'
p8217
sg10
F2.0
sg11
I00
sg12
S'WAS'
p8218
sg14
(dp8219
g16
V1.0
p8220
sg18
V20.0
p8221
sg20
V0.1
p8222
sg22
V5.1
p8223
sg24
V9.9
p8224
sg26
V0.0
p8225
sg28
V3.6
p8226
sg30
V0.0
p8227
ssg32
(lp8228
sg34
I0
sg35
I00
sg36
(lp8229
g38
asg39
F1.6
sg40
F2.4
sbsS'Christopher Ivory - NYJ'
p8230
g2
(g3
g4
Ntp8231
Rp8232
(dp8233
g8
S'Christopher Ivory'
p8234
sg10
F2.0
sg11
I00
sg12
S'NYJ'
p8235
sg14
(dp8236
g16
V25.6
p8237
sg18
V899.4
p8238
sg20
V5.3
p8239
sg22
V204.2
p8240
sg24
V173.7
p8241
sg26
V0.8
p8242
sg28
V141.8
p8243
sg30
V1.2
p8244
ssg32
(lp8245
sg34
I0
sg35
I00
sg36
(lp8246
g38
asg39
F1.6
sg40
F2.4
sbsS'Austin Johnson - NO'
p8247
g2
(g3
g4
Ntp8248
Rp8249
(dp8250
g8
S'Austin Johnson'
p8251
sg10
F2.0
sg11
I00
sg12
S'NO'
p8252
sg14
(dp8253
g16
V7.6
p8254
sg18
V61.0
p8255
sg20
V0.2
p8256
sg22
V20.2
p8257
sg24
V61.0
p8258
sg26
V1.8
p8259
sg28
V24.2
p8260
sg30
V0.0
p8261
ssg32
(lp8262
sg34
I0
sg35
I00
sg36
(lp8263
g38
asg39
F1.6
sg40
F2.4
sbsS'Calvin Johnson - DET'
p8264
g2
(g3
g4
Ntp8265
Rp8266
(dp8267
g8
S'Calvin Johnson'
p8268
sg10
F2.0
sg11
I00
sg12
S'DET'
p8269
sg14
(dp8270
g16
V86.3
p8271
sg18
V0.0
p8272
sg20
V0.0
p8273
sg22
V0.0
p8274
sg24
V1307.8
p8275
sg26
V10.0
p8276
sg28
V190.2
p8277
sg30
V0.3
p8278
ssg32
(lp8279
sg34
I0
sg35
I00
sg36
(lp8280
g75
asg39
F1.6
sg40
F2.4
sbsS'Jaelen Strong - HOU'
p8281
g2
(g3
g4
Ntp8282
Rp8283
(dp8284
g8
S'Jaelen Strong'
p8285
sg10
F2.0
sg11
I00
sg12
S'HOU'
p8286
sg14
(dp8287
g16
V25.7
p8288
sg18
V0.0
p8289
sg20
V0.0
p8290
sg22
V0.0
p8291
sg24
V349.5
p8292
sg26
V1.8
p8293
sg28
V44.7
p8294
sg30
V0.6
p8295
ssg32
(lp8296
sg34
I0
sg35
I00
sg36
(lp8297
g75
asg39
F1.6
sg40
F2.4
sbsS'Spencer - Ware'
p8298
g2
(g3
g4
Ntp8299
Rp8300
(dp8301
g8
S'Spencer'
p8302
sg10
F2.0
sg11
I00
sg12
S'Ware'
p8303
sg14
(dp8304
g16
V0.3
p8305
sg18
V3.9
p8306
sg20
V0.0
p8307
sg22
V0.9
p8308
sg24
V2.0
p8309
sg26
V0.0
p8310
sg28
V0.6
p8311
sg30
V0.0
p8312
ssg32
(lp8313
sg34
I0
sg35
I00
sg36
(lp8314
g38
asg39
F1.6
sg40
F2.4
sbsS'Blake Bortles - JAC'
p8315
g2
(g3
g4
Ntp8316
Rp8317
(dp8318
g8
S'Blake Bortles'
p8319
sg10
F2.0
sg11
I00
sg12
S'JAC'
p8320
sg14
(dp8321
g98
V18.1
p8322
sg22
V58.0
p8323
sg101
V531.8
p8324
sg20
V1.1
p8325
sg104
V3432.5
p8326
sg106
V312.2
p8327
sg28
V205.7
p8328
sg30
V3.4
p8329
sg110
V17.4
p8330
sg18
V354.6
p8331
ssg32
(lp8332
sg34
I0
sg35
I00
sg36
(lp8333
g115
asg39
F1.6
sg40
F2.4
sbsS'Chad Henne - JAC'
p8334
g2
(g3
g4
Ntp8335
Rp8336
(dp8337
g8
S'Chad Henne'
p8338
sg10
F2.0
sg11
I00
sg12
S'JAC'
p8339
sg14
(dp8340
g98
V0.6
p8341
sg22
V1.8
p8342
sg101
V25.4
p8343
sg20
V0.0
p8344
sg104
V154.1
p8345
sg106
V14.5
p8346
sg28
V7.5
p8347
sg30
V0.2
p8348
sg110
V0.6
p8349
sg18
V7.7
p8350
ssg32
(lp8351
sg34
I0
sg35
I00
sg36
(lp8352
g115
asg39
F1.6
sg40
F2.4
sbsS'Bernard Pierce - JAC'
p8353
g2
(g3
g4
Ntp8354
Rp8355
(dp8356
g8
S'Bernard Pierce'
p8357
sg10
F2.0
sg11
I00
sg12
S'JAC'
p8358
sg14
(dp8359
g16
V1.0
p8360
sg18
V14.0
p8361
sg20
V0.1
p8362
sg22
V4.2
p8363
sg24
V5.4
p8364
sg26
V0.0
p8365
sg28
V2.6
p8366
sg30
V0.0
p8367
ssg32
(lp8368
sg34
I0
sg35
I00
sg36
(lp8369
g38
asg39
F1.6
sg40
F2.4
sbsS'John Crockett - GB'
p8370
g2
(g3
g4
Ntp8371
Rp8372
(dp8373
g8
S'John Crockett'
p8374
sg10
F2.0
sg11
I00
sg12
S'GB'
p8375
sg14
(dp8376
g16
V1.1
p8377
sg18
V26.2
p8378
sg20
V0.2
p8379
sg22
V7.0
p8380
sg24
V9.7
p8381
sg26
V0.1
p8382
sg28
V5.4
p8383
sg30
V0.0
p8384
ssg32
(lp8385
sg34
I0
sg35
I00
sg36
(lp8386
g38
asg39
F1.6
sg40
F2.4
sbsS'Brandon Weeden - DAL'
p8387
g2
(g3
g4
Ntp8388
Rp8389
(dp8390
g8
S'Brandon Weeden'
p8391
sg10
F2.0
sg11
I00
sg12
S'DAL'
p8392
sg14
(dp8393
g98
V0.2
p8394
sg22
V1.2
p8395
sg101
V20.8
p8396
sg20
V0.0
p8397
sg104
V148.0
p8398
sg106
V12.5
p8399
sg28
V10.1
p8400
sg30
V0.1
p8401
sg110
V1.1
p8402
sg18
V3.4
p8403
ssg32
(lp8404
sg34
I0
sg35
I00
sg36
(lp8405
g115
asg39
F1.6
sg40
F2.4
sbsS'Stefon Diggs - MIN'
p8406
g2
(g3
g4
Ntp8407
Rp8408
(dp8409
g8
S'Stefon Diggs'
p8410
sg10
F2.0
sg11
I00
sg12
S'MIN'
p8411
sg14
(dp8412
g16
V4.3
p8413
sg18
V0.0
p8414
sg20
V0.0
p8415
sg22
V0.0
p8416
sg24
V55.0
p8417
sg26
V0.1
p8418
sg28
V6.3
p8419
sg30
V0.0
p8420
ssg32
(lp8421
sg34
I0
sg35
I00
sg36
(lp8422
g75
asg39
F1.6
sg40
F2.4
sbsS'Bear - Pascoe'
p8423
g2
(g3
g4
Ntp8424
Rp8425
(dp8426
g8
S'Bear'
p8427
sg10
F2.0
sg11
I00
sg12
S'Pascoe'
p8428
sg14
(dp8429
g16
V3.0
p8430
sg30
V0.0
p8431
sg24
V17.5
p8432
sg26
V0.3
p8433
sg28
V3.3
p8434
ssg32
(lp8435
sg34
I0
sg35
I00
sg36
(lp8436
g90
asg39
F1.6
sg40
F2.4
sbsS'Martellus Bennett - CHI'
p8437
g2
(g3
g4
Ntp8438
Rp8439
(dp8440
g8
S'Martellus Bennett'
p8441
sg10
F2.0
sg11
I00
sg12
S'CHI'
p8442
sg14
(dp8443
g16
V78.8
p8444
sg30
V0.3
p8445
sg24
V825.9
p8446
sg26
V5.3
p8447
sg28
V113.7
p8448
ssg32
(lp8449
sg34
I0
sg35
I00
sg36
(lp8450
g90
asg39
F1.6
sg40
F2.4
sbsS'DeMarco Murray - PHI'
p8451
g2
(g3
g4
Ntp8452
Rp8453
(dp8454
g8
S'DeMarco Murray'
p8455
sg10
F2.0
sg11
I00
sg12
S'PHI'
p8456
sg14
(dp8457
g16
V40.6
p8458
sg18
V1198.7
p8459
sg20
V10.0
p8460
sg22
V263.4
p8461
sg24
V291.8
p8462
sg26
V1.0
p8463
sg28
V202.2
p8464
sg30
V6.4
p8465
ssg32
(lp8466
sg34
I0
sg35
I00
sg36
(lp8467
g38
asg39
F1.6
sg40
F2.4
sbsS'DeSean Jackson - WAS'
p8468
g2
(g3
g4
Ntp8469
Rp8470
(dp8471
g8
S'DeSean Jackson'
p8472
sg10
F2.0
sg11
I00
sg12
S'WAS'
p8473
sg14
(dp8474
g16
V64.5
p8475
sg18
V20.9
p8476
sg20
V0.0
p8477
sg22
V4.2
p8478
sg24
V1036.4
p8479
sg26
V6.1
p8480
sg28
V141.7
p8481
sg30
V0.4
p8482
ssg32
(lp8483
sg34
I0
sg35
I00
sg36
(lp8484
g75
asg39
F1.6
sg40
F2.4
sbsS'Aaron Ripkowski - GB'
p8485
g2
(g3
g4
Ntp8486
Rp8487
(dp8488
g8
S'Aaron Ripkowski'
p8489
sg10
F2.0
sg11
I00
sg12
S'GB'
p8490
sg14
(dp8491
g16
V0.4
p8492
sg18
V3.2
p8493
sg20
V0.0
p8494
sg22
V0.7
p8495
sg24
V3.2
p8496
sg26
V0.0
p8497
sg28
V0.6
p8498
sg30
V0.0
p8499
ssg32
(lp8500
sg34
I0
sg35
I00
sg36
(lp8501
g38
asg39
F1.6
sg40
F2.4
sbsS'Quinton Patton - SF'
p8502
g2
(g3
g4
Ntp8503
Rp8504
(dp8505
g8
S'Quinton Patton'
p8506
sg10
F2.0
sg11
I00
sg12
S'SF'
p8507
sg14
(dp8508
g16
V20.7
p8509
sg18
V5.3
p8510
sg20
V0.0
p8511
sg22
V0.8
p8512
sg24
V261.0
p8513
sg26
V1.1
p8514
sg28
V28.5
p8515
sg30
V2.4
p8516
ssg32
(lp8517
sg34
I0
sg35
I00
sg36
(lp8518
g75
asg39
F1.6
sg40
F2.4
sbsS'James Casey - DEN'
p8519
g2
(g3
g4
Ntp8520
Rp8521
(dp8522
g8
S'James Casey'
p8523
sg10
F2.0
sg11
I00
sg12
S'DEN'
p8524
sg14
(dp8525
g16
V10.0
p8526
sg18
V0.4
p8527
sg20
V0.0
p8528
sg22
V0.4
p8529
sg24
V110.5
p8530
sg26
V2.0
p8531
sg28
V23.1
p8532
sg30
V0.0
p8533
ssg32
(lp8534
sg34
I0
sg35
I00
sg36
(lp8535
g38
ag90
asg39
F1.6
sg40
F2.4
sbsS'Dan Orlovsky - DET'
p8536
g2
(g3
g4
Ntp8537
Rp8538
(dp8539
g8
S'Dan Orlovsky'
p8540
sg10
F2.0
sg11
I00
sg12
S'DET'
p8541
sg14
(dp8542
g98
V0.3
p8543
sg22
V0.6
p8544
sg101
V10.9
p8545
sg20
V0.0
p8546
sg104
V75.5
p8547
sg106
V6.6
p8548
sg28
V4.0
p8549
sg30
V0.2
p8550
sg110
V0.4
p8551
sg18
V2.3
p8552
ssg32
(lp8553
sg34
I0
sg35
I00
sg36
(lp8554
g115
asg39
F1.6
sg40
F2.4
sbsS'Andrew Quarless - GB'
p8555
g2
(g3
g4
Ntp8556
Rp8557
(dp8558
g8
S'Andrew Quarless'
p8559
sg10
F2.0
sg11
I00
sg12
S'GB'
p8560
sg14
(dp8561
g16
V27.4
p8562
sg30
V0.3
p8563
sg24
V309.1
p8564
sg26
V2.6
p8565
sg28
V46.1
p8566
ssg32
(lp8567
sg34
I0
sg35
I00
sg36
(lp8568
g90
asg39
F1.6
sg40
F2.4
sbsS'C.J. Anderson - DEN'
p8569
g2
(g3
g4
Ntp8570
Rp8571
(dp8572
g8
S'C.J. Anderson'
p8573
sg10
F2.0
sg11
I00
sg12
S'DEN'
p8574
sg14
(dp8575
g16
V44.3
p8576
sg18
V1102.0
p8577
sg20
V9.3
p8578
sg22
V241.2
p8579
sg24
V375.0
p8580
sg26
V1.5
p8581
sg28
V210.8
p8582
sg30
V1.1
p8583
ssg32
(lp8584
sg34
I0
sg35
I00
sg36
(lp8585
g38
asg39
F1.6
sg40
F2.4
sbsS'Jeremy Maclin - KC'
p8586
g2
(g3
g4
Ntp8587
Rp8588
(dp8589
g8
S'Jeremy Maclin'
p8590
sg10
F2.0
sg11
I00
sg12
S'KC'
p8591
sg14
(dp8592
g16
V71.3
p8593
sg18
V0.0
p8594
sg20
V0.0
p8595
sg22
V0.0
p8596
sg24
V941.5
p8597
sg26
V6.7
p8598
sg28
V134.0
p8599
sg30
V0.3
p8600
ssg32
(lp8601
sg34
I0
sg35
I00
sg36
(lp8602
g75
asg39
F1.6
sg40
F2.4
sbsS'Deonte Thompson - BUF'
p8603
g2
(g3
g4
Ntp8604
Rp8605
(dp8606
g8
S'Deonte Thompson'
p8607
sg10
F2.0
sg11
I00
sg12
S'BUF'
p8608
sg14
(dp8609
g16
V5.1
p8610
sg18
V0.0
p8611
sg20
V0.0
p8612
sg22
V0.0
p8613
sg24
V59.9
p8614
sg26
V0.3
p8615
sg28
V7.7
p8616
sg30
V0.0
p8617
ssg32
(lp8618
sg34
I0
sg35
I00
sg36
(lp8619
g75
asg39
F1.6
sg40
F2.4
sbsS'Shaun - Draughn'
p8620
g2
(g3
g4
Ntp8621
Rp8622
(dp8623
g8
S'Shaun'
p8624
sg10
F2.0
sg11
I00
sg12
S'Draughn'
p8625
sg14
(dp8626
g16
V1.1
p8627
sg18
V4.4
p8628
sg20
V0.0
p8629
sg22
V4.4
p8630
sg24
V2.1
p8631
sg26
V0.0
p8632
sg28
V0.6
p8633
sg30
V0.0
p8634
ssg32
(lp8635
sg34
I0
sg35
I00
sg36
(lp8636
g38
asg39
F1.6
sg40
F2.4
sbsS'Theo Riddick - DET'
p8637
g2
(g3
g4
Ntp8638
Rp8639
(dp8640
g8
S'Theo Riddick'
p8641
sg10
F2.0
sg11
I00
sg12
S'DET'
p8642
sg14
(dp8643
g16
V29.5
p8644
sg18
V117.9
p8645
sg20
V0.5
p8646
sg22
V31.0
p8647
sg24
V259.0
p8648
sg26
V2.0
p8649
sg28
V50.4
p8650
sg30
V1.2
p8651
ssg32
(lp8652
sg34
I0
sg35
I00
sg36
(lp8653
g38
asg39
F1.6
sg40
F2.4
sbsS'Ryan Fitzpatrick - NYJ'
p8654
g2
(g3
g4
Ntp8655
Rp8656
(dp8657
g8
S'Ryan Fitzpatrick'
p8658
sg10
F2.0
sg11
I00
sg12
S'NYJ'
p8659
sg14
(dp8660
g98
V9.6
p8661
sg22
V33.4
p8662
sg101
V312.1
p8663
sg20
V0.8
p8664
sg104
V2187.2
p8665
sg106
V188.4
p8666
sg28
V138.7
p8667
sg30
V0.8
p8668
sg110
V13.3
p8669
sg18
V139.6
p8670
ssg32
(lp8671
sg34
I0
sg35
I00
sg36
(lp8672
g115
asg39
F1.6
sg40
F2.4
sbsS'Chase Ford - MIN'
p8673
g2
(g3
g4
Ntp8674
Rp8675
(dp8676
g8
S'Chase Ford'
p8677
sg10
F2.0
sg11
I00
sg12
S'MIN'
p8678
sg14
(dp8679
g16
V4.8
p8680
sg30
V0.0
p8681
sg24
V59.1
p8682
sg26
V0.3
p8683
sg28
V7.9
p8684
ssg32
(lp8685
sg34
I0
sg35
I00
sg36
(lp8686
g90
asg39
F1.6
sg40
F2.4
sbsS'Brandon Marshall - NYJ'
p8687
g2
(g3
g4
Ntp8688
Rp8689
(dp8690
g8
S'Brandon Marshall'
p8691
sg10
F2.0
sg11
I00
sg12
S'NYJ'
p8692
sg14
(dp8693
g16
V73.1
p8694
sg18
V0.5
p8695
sg20
V0.0
p8696
sg22
V0.2
p8697
sg24
V956.2
p8698
sg26
V6.4
p8699
sg28
V132.1
p8700
sg30
V0.9
p8701
ssg32
(lp8702
sg34
I0
sg35
I00
sg36
(lp8703
g75
asg39
F1.6
sg40
F2.4
sbsS'Ted Ginn - CAR'
p8704
g2
(g3
g4
Ntp8705
Rp8706
(dp8707
g8
S'Ted Ginn'
p8708
sg10
F2.0
sg11
I00
sg12
S'CAR'
p8709
sg14
(dp8710
g16
V17.1
p8711
sg18
V17.0
p8712
sg20
V0.0
p8713
sg22
V2.7
p8714
sg24
V244.1
p8715
sg26
V1.3
p8716
sg28
V29.5
p8717
sg30
V2.2
p8718
ssg32
(lp8719
sg34
I0
sg35
I00
sg36
(lp8720
g75
asg39
F1.6
sg40
F2.4
sbsS'Chris Matthews - SEA'
p8721
g2
(g3
g4
Ntp8722
Rp8723
(dp8724
g8
S'Chris Matthews'
p8725
sg10
F2.0
sg11
I00
sg12
S'SEA'
p8726
sg14
(dp8727
g16
V12.8
p8728
sg18
V0.0
p8729
sg20
V0.0
p8730
sg22
V0.0
p8731
sg24
V177.4
p8732
sg26
V1.0
p8733
sg28
V23.5
p8734
sg30
V0.0
p8735
ssg32
(lp8736
sg34
I0
sg35
I00
sg36
(lp8737
g75
asg39
F1.6
sg40
F2.4
sbsS'Daryl - Richardson'
p8738
g2
(g3
g4
Ntp8739
Rp8740
(dp8741
g8
S'Daryl'
p8742
sg10
F2.0
sg11
I00
sg12
S'Richardson'
p8743
sg14
(dp8744
g16
V1.9
p8745
sg18
V60.0
p8746
sg20
V0.3
p8747
sg22
V13.0
p8748
sg24
V17.9
p8749
sg26
V0.0
p8750
sg28
V9.4
p8751
sg30
V0.1
p8752
ssg32
(lp8753
sg34
I0
sg35
I00
sg36
(lp8754
g38
asg39
F1.6
sg40
F2.4
sbsS'Luke Willson - SEA'
p8755
g2
(g3
g4
Ntp8756
Rp8757
(dp8758
g8
S'Luke Willson'
p8759
sg10
F2.0
sg11
I00
sg12
S'SEA'
p8760
sg14
(dp8761
g16
V18.3
p8762
sg30
V0.2
p8763
sg24
V244.2
p8764
sg26
V1.9
p8765
sg28
V35.1
p8766
ssg32
(lp8767
sg34
I0
sg35
I00
sg36
(lp8768
g90
asg39
F1.6
sg40
F2.4
sbsS'Mike Tolbert - CAR'
p8769
g2
(g3
g4
Ntp8770
Rp8771
(dp8772
g8
S'Mike Tolbert'
p8773
sg10
F2.0
sg11
I00
sg12
S'CAR'
p8774
sg14
(dp8775
g16
V17.5
p8776
sg18
V161.1
p8777
sg20
V1.6
p8778
sg22
V48.8
p8779
sg24
V125.5
p8780
sg26
V1.0
p8781
sg28
V44.1
p8782
sg30
V0.0
p8783
ssg32
(lp8784
sg34
I0
sg35
I00
sg36
(lp8785
g38
asg39
F1.6
sg40
F2.4
sbsS'James Hanna - DAL'
p8786
g2
(g3
g4
Ntp8787
Rp8788
(dp8789
g8
S'James Hanna'
p8790
sg10
F2.0
sg11
I00
sg12
S'DAL'
p8791
sg14
(dp8792
g16
V3.7
p8793
sg30
V0.0
p8794
sg24
V35.7
p8795
sg26
V0.1
p8796
sg28
V3.9
p8797
ssg32
(lp8798
sg34
I0
sg35
I00
sg36
(lp8799
g90
asg39
F1.6
sg40
F2.4
sbsS'Nic Jacobs - JAC'
p8800
g2
(g3
g4
Ntp8801
Rp8802
(dp8803
g8
S'Nic Jacobs'
p8804
sg10
F2.0
sg11
I00
sg12
S'JAC'
p8805
sg14
(dp8806
g16
V3.0
p8807
sg30
V0.0
p8808
sg24
V35.8
p8809
sg26
V0.5
p8810
sg28
V6.6
p8811
ssg32
(lp8812
sg34
I0
sg35
I00
sg36
(lp8813
g90
asg39
F1.6
sg40
F2.4
sbsS'James Starks - GB'
p8814
g2
(g3
g4
Ntp8815
Rp8816
(dp8817
g8
S'James Starks'
p8818
sg10
F2.0
sg11
I00
sg12
S'GB'
p8819
sg14
(dp8820
g16
V19.4
p8821
sg18
V345.7
p8822
sg20
V1.8
p8823
sg22
V81.9
p8824
sg24
V146.9
p8825
sg26
V0.7
p8826
sg28
V62.2
p8827
sg30
V1.1
p8828
ssg32
(lp8829
sg34
I0
sg35
I00
sg36
(lp8830
g38
asg39
F1.6
sg40
F2.4
sbsS'Mark Ingram - NO'
p8831
g2
(g3
g4
Ntp8832
Rp8833
(dp8834
g8
S'Mark Ingram'
p8835
sg10
F2.0
sg11
I00
sg12
S'NO'
p8836
sg14
(dp8837
g16
V25.9
p8838
sg18
V1024.4
p8839
sg20
V8.8
p8840
sg22
V231.8
p8841
sg24
V167.8
p8842
sg26
V0.5
p8843
sg28
V171.7
p8844
sg30
V1.6
p8845
ssg32
(lp8846
sg34
I0
sg35
I00
sg36
(lp8847
g38
asg39
F1.6
sg40
F2.4
sbsS'Ryan Nassib - NYG'
p8848
g2
(g3
g4
Ntp8849
Rp8850
(dp8851
g8
S'Ryan Nassib'
p8852
sg10
F2.0
sg11
I00
sg12
S'NYG'
p8853
sg14
(dp8854
g98
V0.3
p8855
sg22
V0.8
p8856
sg101
V11.1
p8857
sg20
V0.0
p8858
sg104
V78.1
p8859
sg106
V6.9
p8860
sg28
V4.2
p8861
sg30
V0.0
p8862
sg110
V0.4
p8863
sg18
V1.0
p8864
ssg32
(lp8865
sg34
I0
sg35
I00
sg36
(lp8866
g115
asg39
F1.6
sg40
F2.4
sbsS'Dominique Jones - DEN'
p8867
g2
(g3
g4
Ntp8868
Rp8869
(dp8870
g8
S'Dominique Jones'
p8871
sg10
F2.0
sg11
I00
sg12
S'DEN'
p8872
sg14
(dp8873
g16
V1.6
p8874
sg30
V0.0
p8875
sg24
V17.6
p8876
sg26
V0.1
p8877
sg28
V2.4
p8878
ssg32
(lp8879
sg34
I0
sg35
I00
sg36
(lp8880
g90
asg39
F1.6
sg40
F2.4
sbsS'Lorenzo Taliaferro - BAL'
p8881
g2
(g3
g4
Ntp8882
Rp8883
(dp8884
g8
S'Lorenzo Taliaferro'
p8885
sg10
F2.0
sg11
I00
sg12
S'BAL'
p8886
sg14
(dp8887
g16
V17.7
p8888
sg18
V343.0
p8889
sg20
V3.1
p8890
sg22
V82.5
p8891
sg24
V157.3
p8892
sg26
V0.9
p8893
sg28
V68.6
p8894
sg30
V2.6
p8895
ssg32
(lp8896
sg34
I0
sg35
I00
sg36
(lp8897
g38
asg39
F1.6
sg40
F2.4
sbsS'Gavin Escobar - DAL'
p8898
g2
(g3
g4
Ntp8899
Rp8900
(dp8901
g8
S'Gavin Escobar'
p8902
sg10
F2.0
sg11
I00
sg12
S'DAL'
p8903
sg14
(dp8904
g16
V19.1
p8905
sg30
V0.4
p8906
sg24
V232.8
p8907
sg26
V3.3
p8908
sg28
V42.1
p8909
ssg32
(lp8910
sg34
I0
sg35
I00
sg36
(lp8911
g90
asg39
F1.6
sg40
F2.4
sbsS'Ed Dickson - CAR'
p8912
g2
(g3
g4
Ntp8913
Rp8914
(dp8915
g8
S'Ed Dickson'
p8916
sg10
F2.0
sg11
I00
sg12
S'CAR'
p8917
sg14
(dp8918
g16
V20.1
p8919
sg30
V0.4
p8920
sg24
V215.0
p8921
sg26
V1.6
p8922
sg28
V30.2
p8923
ssg32
(lp8924
sg34
I0
sg35
I00
sg36
(lp8925
g90
asg39
F1.6
sg40
F2.4
sbsS'Jordan Matthews - PHI'
p8926
g2
(g3
g4
Ntp8927
Rp8928
(dp8929
g8
S'Jordan Matthews'
p8930
sg10
F2.0
sg11
I00
sg12
S'PHI'
p8931
sg14
(dp8932
g16
V73.6
p8933
sg18
V0.0
p8934
sg20
V0.0
p8935
sg22
V0.0
p8936
sg24
V1002.1
p8937
sg26
V7.8
p8938
sg28
V146.1
p8939
sg30
V0.5
p8940
ssg32
(lp8941
sg34
I0
sg35
I00
sg36
(lp8942
g75
asg39
F1.6
sg40
F2.4
sbsS'Anthony Sherman - KC'
p8943
g2
(g3
g4
Ntp8944
Rp8945
(dp8946
g8
S'Anthony Sherman'
p8947
sg10
F2.0
sg11
I00
sg12
S'KC'
p8948
sg14
(dp8949
g16
V11.5
p8950
sg18
V27.2
p8951
sg20
V0.2
p8952
sg22
V6.0
p8953
sg24
V86.3
p8954
sg26
V1.1
p8955
sg28
V19.0
p8956
sg30
V0.3
p8957
ssg32
(lp8958
sg34
I0
sg35
I00
sg36
(lp8959
g38
asg39
F1.6
sg40
F2.4
sbsS'Allen Robinson - JAC'
p8960
g2
(g3
g4
Ntp8961
Rp8962
(dp8963
g8
S'Allen Robinson'
p8964
sg10
F2.0
sg11
I00
sg12
S'JAC'
p8965
sg14
(dp8966
g16
V72.2
p8967
sg18
V0.0
p8968
sg20
V0.0
p8969
sg22
V0.0
p8970
sg24
V867.7
p8971
sg26
V4.8
p8972
sg28
V114.8
p8973
sg30
V0.3
p8974
ssg32
(lp8975
sg34
I0
sg35
I00
sg36
(lp8976
g75
asg39
F1.6
sg40
F2.4
sbsS'Zach Mettenberger - TEN'
p8977
g2
(g3
g4
Ntp8978
Rp8979
(dp8980
g8
S'Zach Mettenberger'
p8981
sg10
F2.0
sg11
I00
sg12
S'TEN'
p8982
sg14
(dp8983
g98
V0.8
p8984
sg22
V1.7
p8985
sg101
V28.1
p8986
sg20
V0.0
p8987
sg104
V188.1
p8988
sg106
V16.5
p8989
sg28
V10.8
p8990
sg30
V0.1
p8991
sg110
V1.1
p8992
sg18
V7.2
p8993
ssg32
(lp8994
sg34
I0
sg35
I00
sg36
(lp8995
g115
asg39
F1.6
sg40
F2.4
sbsS'Collin Mooney - ATL'
p8996
g2
(g3
g4
Ntp8997
Rp8998
(dp8999
g8
S'Collin Mooney'
p9000
sg10
F2.0
sg11
I00
sg12
S'ATL'
p9001
sg14
(dp9002
g16
V5.5
p9003
sg18
V32.2
p9004
sg20
V0.1
p9005
sg22
V8.3
p9006
sg24
V38.1
p9007
sg26
V0.2
p9008
sg28
V8.7
p9009
sg30
V0.0
p9010
ssg32
(lp9011
sg34
I0
sg35
I00
sg36
(lp9012
g38
asg39
F1.6
sg40
F2.4
sbsS'Derek Carr - OAK'
p9013
g2
(g3
g4
Ntp9014
Rp9015
(dp9016
g8
S'Derek Carr'
p9017
sg10
F2.0
sg11
I00
sg12
S'OAK'
p9018
sg14
(dp9019
g98
V16.0
p9020
sg22
V29.2
p9021
sg101
V584.6
p9022
sg20
V0.7
p9023
sg104
V3740.7
p9024
sg106
V343.4
p9025
sg28
V208.0
p9026
sg30
V3.8
p9027
sg110
V21.0
p9028
sg18
V95.6
p9029
ssg32
(lp9030
sg34
I0
sg35
I00
sg36
(lp9031
g115
asg39
F1.6
sg40
F2.4
sbsS'Marquess Wilson - CHI'
p9032
g2
(g3
g4
Ntp9033
Rp9034
(dp9035
g8
S'Marquess Wilson'
p9036
sg10
F2.0
sg11
I00
sg12
S'CHI'
p9037
sg14
(dp9038
g16
V28.5
p9039
sg18
V0.0
p9040
sg20
V0.0
p9041
sg22
V0.0
p9042
sg24
V325.2
p9043
sg26
V1.8
p9044
sg28
V42.8
p9045
sg30
V0.3
p9046
ssg32
(lp9047
sg34
I0
sg35
I00
sg36
(lp9048
g75
asg39
F1.6
sg40
F2.4
sbsS'Andre Holmes - OAK'
p9049
g2
(g3
g4
Ntp9050
Rp9051
(dp9052
g8
S'Andre Holmes'
p9053
sg10
F2.0
sg11
I00
sg12
S'OAK'
p9054
sg14
(dp9055
g16
V23.6
p9056
sg18
V0.0
p9057
sg20
V0.0
p9058
sg22
V0.0
p9059
sg24
V373.7
p9060
sg26
V2.2
p9061
sg28
V50.2
p9062
sg30
V0.3
p9063
ssg32
(lp9064
sg34
I0
sg35
I00
sg36
(lp9065
g75
asg39
F1.6
sg40
F2.4
sbsS'Anthony - McCoy'
p9066
g2
(g3
g4
Ntp9067
Rp9068
(dp9069
g8
S'Anthony'
p9070
sg10
F2.0
sg11
I00
sg12
S'McCoy'
p9071
sg14
(dp9072
g16
V1.1
p9073
sg30
V0.0
p9074
sg24
V12.2
p9075
sg26
V0.1
p9076
sg28
V1.8
p9077
ssg32
(lp9078
sg34
I0
sg35
I00
sg36
(lp9079
g90
asg39
F1.6
sg40
F2.4
sbsS'Vance McDonald - SF'
p9080
g2
(g3
g4
Ntp9081
Rp9082
(dp9083
g8
S'Vance McDonald'
p9084
sg10
F2.0
sg11
I00
sg12
S'SF'
p9085
sg14
(dp9086
g16
V14.4
p9087
sg30
V3.0
p9088
sg24
V153.0
p9089
sg26
V0.4
p9090
sg28
V11.9
p9091
ssg32
(lp9092
sg34
I0
sg35
I00
sg36
(lp9093
g90
asg39
F1.6
sg40
F2.4
sbs.